
sum:     file format elf64-littleriscv


Disassembly of section .text.init:

0000000080000000 <_start>:
#endif

  .section ".text.init"
  .globl _start
_start:
  li  x1, 0
    80000000:	4081                	li	ra,0
  li  x2, 0
    80000002:	4101                	li	sp,0
  li  x3, 0
    80000004:	4181                	li	gp,0
  li  x4, 0
    80000006:	4201                	li	tp,0
  li  x5, 0
    80000008:	4281                	li	t0,0
  li  x6, 0
    8000000a:	4301                	li	t1,0
  li  x7, 0
    8000000c:	4381                	li	t2,0
  li  x8, 0
    8000000e:	4401                	li	s0,0
  li  x9, 0
    80000010:	4481                	li	s1,0
  li  x10,0
    80000012:	4501                	li	a0,0
  li  x11,0
    80000014:	4581                	li	a1,0
  li  x12,0
    80000016:	4601                	li	a2,0
  li  x13,0
    80000018:	4681                	li	a3,0
  li  x14,0
    8000001a:	4701                	li	a4,0
  li  x15,0
    8000001c:	4781                	li	a5,0
  li  x16,0
    8000001e:	4801                	li	a6,0
  li  x17,0
    80000020:	4881                	li	a7,0
  li  x18,0
    80000022:	4901                	li	s2,0
  li  x19,0
    80000024:	4981                	li	s3,0
  li  x20,0
    80000026:	4a01                	li	s4,0
  li  x21,0
    80000028:	4a81                	li	s5,0
  li  x22,0
    8000002a:	4b01                	li	s6,0
  li  x23,0
    8000002c:	4b81                	li	s7,0
  li  x24,0
    8000002e:	4c01                	li	s8,0
  li  x25,0
    80000030:	4c81                	li	s9,0
  li  x26,0
    80000032:	4d01                	li	s10,0
  li  x27,0
    80000034:	4d81                	li	s11,0
  li  x28,0
    80000036:	4e01                	li	t3,0
  li  x29,0
    80000038:	4e81                	li	t4,0
  li  x30,0
    8000003a:	4f01                	li	t5,0
  li  x31,0
    8000003c:	4f81                	li	t6,0

  # enable FPU and accelerator if present
  li t0, MSTATUS_FS | MSTATUS_XS
    8000003e:	62f9                	lui	t0,0x1e
  csrs mstatus, t0
    80000040:	3002a073          	csrs	mstatus,t0

  # make sure XLEN agrees with compilation choice
  li t0, 1
    80000044:	4285                	li	t0,1
  slli t0, t0, 31
    80000046:	02fe                	slli	t0,t0,0x1f
#if __riscv_xlen == 64
  bgez t0, 1f
    80000048:	0002d863          	bgez	t0,80000058 <_start+0x58>
#else
  bltz t0, 1f
#endif
2:
  li a0, 1
    8000004c:	4505                	li	a0,1
  sw a0, tohost, t0
    8000004e:	00001297          	auipc	t0,0x1
    80000052:	faa2a923          	sw	a0,-78(t0) # 80001000 <tohost>
  j 2b
    80000056:	bfdd                	j	8000004c <_start+0x4c>
1:

#ifdef __riscv_flen
  # initialize FPU if we have one
  la t0, 1f
    80000058:	00000297          	auipc	t0,0x0
    8000005c:	09028293          	addi	t0,t0,144 # 800000e8 <_start+0xe8>
  csrw mtvec, t0
    80000060:	30529073          	csrw	mtvec,t0

  fssr    x0
    80000064:	00301073          	fscsr	zero
  fmv.s.x f0, x0
    80000068:	f0000053          	fmv.w.x	ft0,zero
  fmv.s.x f1, x0
    8000006c:	f00000d3          	fmv.w.x	ft1,zero
  fmv.s.x f2, x0
    80000070:	f0000153          	fmv.w.x	ft2,zero
  fmv.s.x f3, x0
    80000074:	f00001d3          	fmv.w.x	ft3,zero
  fmv.s.x f4, x0
    80000078:	f0000253          	fmv.w.x	ft4,zero
  fmv.s.x f5, x0
    8000007c:	f00002d3          	fmv.w.x	ft5,zero
  fmv.s.x f6, x0
    80000080:	f0000353          	fmv.w.x	ft6,zero
  fmv.s.x f7, x0
    80000084:	f00003d3          	fmv.w.x	ft7,zero
  fmv.s.x f8, x0
    80000088:	f0000453          	fmv.w.x	fs0,zero
  fmv.s.x f9, x0
    8000008c:	f00004d3          	fmv.w.x	fs1,zero
  fmv.s.x f10,x0
    80000090:	f0000553          	fmv.w.x	fa0,zero
  fmv.s.x f11,x0
    80000094:	f00005d3          	fmv.w.x	fa1,zero
  fmv.s.x f12,x0
    80000098:	f0000653          	fmv.w.x	fa2,zero
  fmv.s.x f13,x0
    8000009c:	f00006d3          	fmv.w.x	fa3,zero
  fmv.s.x f14,x0
    800000a0:	f0000753          	fmv.w.x	fa4,zero
  fmv.s.x f15,x0
    800000a4:	f00007d3          	fmv.w.x	fa5,zero
  fmv.s.x f16,x0
    800000a8:	f0000853          	fmv.w.x	fa6,zero
  fmv.s.x f17,x0
    800000ac:	f00008d3          	fmv.w.x	fa7,zero
  fmv.s.x f18,x0
    800000b0:	f0000953          	fmv.w.x	fs2,zero
  fmv.s.x f19,x0
    800000b4:	f00009d3          	fmv.w.x	fs3,zero
  fmv.s.x f20,x0
    800000b8:	f0000a53          	fmv.w.x	fs4,zero
  fmv.s.x f21,x0
    800000bc:	f0000ad3          	fmv.w.x	fs5,zero
  fmv.s.x f22,x0
    800000c0:	f0000b53          	fmv.w.x	fs6,zero
  fmv.s.x f23,x0
    800000c4:	f0000bd3          	fmv.w.x	fs7,zero
  fmv.s.x f24,x0
    800000c8:	f0000c53          	fmv.w.x	fs8,zero
  fmv.s.x f25,x0
    800000cc:	f0000cd3          	fmv.w.x	fs9,zero
  fmv.s.x f26,x0
    800000d0:	f0000d53          	fmv.w.x	fs10,zero
  fmv.s.x f27,x0
    800000d4:	f0000dd3          	fmv.w.x	fs11,zero
  fmv.s.x f28,x0
    800000d8:	f0000e53          	fmv.w.x	ft8,zero
  fmv.s.x f29,x0
    800000dc:	f0000ed3          	fmv.w.x	ft9,zero
  fmv.s.x f30,x0
    800000e0:	f0000f53          	fmv.w.x	ft10,zero
  fmv.s.x f31,x0
    800000e4:	f0000fd3          	fmv.w.x	ft11,zero
1:
#endif

  # initialize trap vector
  la t0, trap_entry
    800000e8:	00000297          	auipc	t0,0x0
    800000ec:	03828293          	addi	t0,t0,56 # 80000120 <trap_entry>
  csrw mtvec, t0
    800000f0:	30529073          	csrw	mtvec,t0

  # initialize global pointer
.option push
.option norelax
  la gp, __global_pointer$
    800000f4:	00001197          	auipc	gp,0x1
    800000f8:	75418193          	addi	gp,gp,1876 # 80001848 <__global_pointer$>
.option pop

  la  tp, _end + 63
    800000fc:	85f18213          	addi	tp,gp,-1953 # 800010a7 <_end+0x3f>
  and tp, tp, -64
    80000100:	fc027213          	andi	tp,tp,-64

  # get core id
  csrr a0, mhartid
    80000104:	f1402573          	csrr	a0,mhartid
  # for now, assume only 1 core
  li a1, 1
    80000108:	4585                	li	a1,1
1:bgeu a0, a1, 1b
    8000010a:	00b57063          	bgeu	a0,a1,8000010a <_start+0x10a>

  # give each core 128KB of stack + TLS
#define STKSHIFT 17
  add sp, a0, 1
    8000010e:	00150113          	addi	sp,a0,1
  sll sp, sp, STKSHIFT
    80000112:	0146                	slli	sp,sp,0x11
  add sp, sp, tp
    80000114:	9112                	add	sp,sp,tp
  sll a2, a0, STKSHIFT
    80000116:	01151613          	slli	a2,a0,0x11
  add tp, tp, a2
    8000011a:	9232                	add	tp,tp,a2

  j _init
    8000011c:	6700006f          	j	8000078c <_init>

0000000080000120 <trap_entry>:

  .align 2
trap_entry:
  addi sp, sp, -272
    80000120:	716d                	addi	sp,sp,-272

  SREG x1, 1*REGBYTES(sp)
    80000122:	e406                	sd	ra,8(sp)
  SREG x2, 2*REGBYTES(sp)
    80000124:	e80a                	sd	sp,16(sp)
  SREG x3, 3*REGBYTES(sp)
    80000126:	ec0e                	sd	gp,24(sp)
  SREG x4, 4*REGBYTES(sp)
    80000128:	f012                	sd	tp,32(sp)
  SREG x5, 5*REGBYTES(sp)
    8000012a:	f416                	sd	t0,40(sp)
  SREG x6, 6*REGBYTES(sp)
    8000012c:	f81a                	sd	t1,48(sp)
  SREG x7, 7*REGBYTES(sp)
    8000012e:	fc1e                	sd	t2,56(sp)
  SREG x8, 8*REGBYTES(sp)
    80000130:	e0a2                	sd	s0,64(sp)
  SREG x9, 9*REGBYTES(sp)
    80000132:	e4a6                	sd	s1,72(sp)
  SREG x10, 10*REGBYTES(sp)
    80000134:	e8aa                	sd	a0,80(sp)
  SREG x11, 11*REGBYTES(sp)
    80000136:	ecae                	sd	a1,88(sp)
  SREG x12, 12*REGBYTES(sp)
    80000138:	f0b2                	sd	a2,96(sp)
  SREG x13, 13*REGBYTES(sp)
    8000013a:	f4b6                	sd	a3,104(sp)
  SREG x14, 14*REGBYTES(sp)
    8000013c:	f8ba                	sd	a4,112(sp)
  SREG x15, 15*REGBYTES(sp)
    8000013e:	fcbe                	sd	a5,120(sp)
  SREG x16, 16*REGBYTES(sp)
    80000140:	e142                	sd	a6,128(sp)
  SREG x17, 17*REGBYTES(sp)
    80000142:	e546                	sd	a7,136(sp)
  SREG x18, 18*REGBYTES(sp)
    80000144:	e94a                	sd	s2,144(sp)
  SREG x19, 19*REGBYTES(sp)
    80000146:	ed4e                	sd	s3,152(sp)
  SREG x20, 20*REGBYTES(sp)
    80000148:	f152                	sd	s4,160(sp)
  SREG x21, 21*REGBYTES(sp)
    8000014a:	f556                	sd	s5,168(sp)
  SREG x22, 22*REGBYTES(sp)
    8000014c:	f95a                	sd	s6,176(sp)
  SREG x23, 23*REGBYTES(sp)
    8000014e:	fd5e                	sd	s7,184(sp)
  SREG x24, 24*REGBYTES(sp)
    80000150:	e1e2                	sd	s8,192(sp)
  SREG x25, 25*REGBYTES(sp)
    80000152:	e5e6                	sd	s9,200(sp)
  SREG x26, 26*REGBYTES(sp)
    80000154:	e9ea                	sd	s10,208(sp)
  SREG x27, 27*REGBYTES(sp)
    80000156:	edee                	sd	s11,216(sp)
  SREG x28, 28*REGBYTES(sp)
    80000158:	f1f2                	sd	t3,224(sp)
  SREG x29, 29*REGBYTES(sp)
    8000015a:	f5f6                	sd	t4,232(sp)
  SREG x30, 30*REGBYTES(sp)
    8000015c:	f9fa                	sd	t5,240(sp)
  SREG x31, 31*REGBYTES(sp)
    8000015e:	fdfe                	sd	t6,248(sp)

  csrr a0, mcause
    80000160:	34202573          	csrr	a0,mcause
  csrr a1, mepc
    80000164:	341025f3          	csrr	a1,mepc
  mv a2, sp
    80000168:	860a                	mv	a2,sp
  jal handle_trap
    8000016a:	188000ef          	jal	800002f2 <handle_trap>
  csrw mepc, a0
    8000016e:	34151073          	csrw	mepc,a0

  # Remain in M-mode after eret
  li t0, MSTATUS_MPP
    80000172:	6289                	lui	t0,0x2
    80000174:	8002829b          	addiw	t0,t0,-2048 # 1800 <_start-0x7fffe800>
  csrs mstatus, t0
    80000178:	3002a073          	csrs	mstatus,t0

  LREG x1, 1*REGBYTES(sp)
    8000017c:	60a2                	ld	ra,8(sp)
  LREG x2, 2*REGBYTES(sp)
    8000017e:	6142                	ld	sp,16(sp)
  LREG x3, 3*REGBYTES(sp)
    80000180:	61e2                	ld	gp,24(sp)
  LREG x4, 4*REGBYTES(sp)
    80000182:	7202                	ld	tp,32(sp)
  LREG x5, 5*REGBYTES(sp)
    80000184:	72a2                	ld	t0,40(sp)
  LREG x6, 6*REGBYTES(sp)
    80000186:	7342                	ld	t1,48(sp)
  LREG x7, 7*REGBYTES(sp)
    80000188:	73e2                	ld	t2,56(sp)
  LREG x8, 8*REGBYTES(sp)
    8000018a:	6406                	ld	s0,64(sp)
  LREG x9, 9*REGBYTES(sp)
    8000018c:	64a6                	ld	s1,72(sp)
  LREG x10, 10*REGBYTES(sp)
    8000018e:	6546                	ld	a0,80(sp)
  LREG x11, 11*REGBYTES(sp)
    80000190:	65e6                	ld	a1,88(sp)
  LREG x12, 12*REGBYTES(sp)
    80000192:	7606                	ld	a2,96(sp)
  LREG x13, 13*REGBYTES(sp)
    80000194:	76a6                	ld	a3,104(sp)
  LREG x14, 14*REGBYTES(sp)
    80000196:	7746                	ld	a4,112(sp)
  LREG x15, 15*REGBYTES(sp)
    80000198:	77e6                	ld	a5,120(sp)
  LREG x16, 16*REGBYTES(sp)
    8000019a:	680a                	ld	a6,128(sp)
  LREG x17, 17*REGBYTES(sp)
    8000019c:	68aa                	ld	a7,136(sp)
  LREG x18, 18*REGBYTES(sp)
    8000019e:	694a                	ld	s2,144(sp)
  LREG x19, 19*REGBYTES(sp)
    800001a0:	69ea                	ld	s3,152(sp)
  LREG x20, 20*REGBYTES(sp)
    800001a2:	7a0a                	ld	s4,160(sp)
  LREG x21, 21*REGBYTES(sp)
    800001a4:	7aaa                	ld	s5,168(sp)
  LREG x22, 22*REGBYTES(sp)
    800001a6:	7b4a                	ld	s6,176(sp)
  LREG x23, 23*REGBYTES(sp)
    800001a8:	7bea                	ld	s7,184(sp)
  LREG x24, 24*REGBYTES(sp)
    800001aa:	6c0e                	ld	s8,192(sp)
  LREG x25, 25*REGBYTES(sp)
    800001ac:	6cae                	ld	s9,200(sp)
  LREG x26, 26*REGBYTES(sp)
    800001ae:	6d4e                	ld	s10,208(sp)
  LREG x27, 27*REGBYTES(sp)
    800001b0:	6dee                	ld	s11,216(sp)
  LREG x28, 28*REGBYTES(sp)
    800001b2:	7e0e                	ld	t3,224(sp)
  LREG x29, 29*REGBYTES(sp)
    800001b4:	7eae                	ld	t4,232(sp)
  LREG x30, 30*REGBYTES(sp)
    800001b6:	7f4e                	ld	t5,240(sp)
  LREG x31, 31*REGBYTES(sp)
    800001b8:	7fee                	ld	t6,248(sp)

  addi sp, sp, 272
    800001ba:	6151                	addi	sp,sp,272
  mret
    800001bc:	30200073          	mret
	...

Disassembly of section .text:

00000000800001c2 <sum>:
#include "util.h"   // supports verify

long sum(long N) {
  long result, i;
   result = 0;
   for (i=1; i<=N; i++) {
    800001c2:	00a05b63          	blez	a0,800001d8 <sum+0x16>
    800001c6:	00150713          	addi	a4,a0,1
    800001ca:	4785                	li	a5,1
   result = 0;
    800001cc:	4501                	li	a0,0
       result = result + i;
    800001ce:	953e                	add	a0,a0,a5
   for (i=1; i<=N; i++) {
    800001d0:	0785                	addi	a5,a5,1
    800001d2:	fee79ee3          	bne	a5,a4,800001ce <sum+0xc>
    800001d6:	8082                	ret
   result = 0;
    800001d8:	4501                	li	a0,0
   }
   return result;
}
    800001da:	8082                	ret

00000000800001dc <main>:

int main(void) {
    800001dc:	1101                	addi	sp,sp,-32
    800001de:	ec06                	sd	ra,24(sp)
    800001e0:	e822                	sd	s0,16(sp)
    int s[1], expected[1];
    setStats(1);
    800001e2:	4505                	li	a0,1
    800001e4:	0b6000ef          	jal	8000029a <setStats>
    s[0] = sum(4);
    800001e8:	4511                	li	a0,4
    800001ea:	fd9ff0ef          	jal	800001c2 <sum>
    800001ee:	0005041b          	sext.w	s0,a0
    800001f2:	c422                	sw	s0,8(sp)
    setStats(0);
    800001f4:	4501                	li	a0,0
    800001f6:	0a4000ef          	jal	8000029a <setStats>
    printf("s = %d\n", s[0]);
    800001fa:	85a2                	mv	a1,s0
    800001fc:	00000517          	auipc	a0,0x0
    80000200:	6dc50513          	addi	a0,a0,1756 # 800008d8 <atol+0x66>
    80000204:	51e000ef          	jal	80000722 <printf>
    int t0 = test[i], t1 = test[i+1];
    int v0 = verify[i], v1 = verify[i+1];
    if (t0 != v0) return i+1;
    if (t1 != v1) return i+2;
  }
  if (n % 2 != 0 && test[n-1] != verify[n-1])
    80000208:	4522                	lw	a0,8(sp)
    8000020a:	1559                	addi	a0,a0,-10
    expected[0] = 10;
    return verify(1, s, expected); // 0 means success
    8000020c:	00a03533          	snez	a0,a0
    80000210:	60e2                	ld	ra,24(sp)
    80000212:	6442                	ld	s0,16(sp)
    80000214:	6105                	addi	sp,sp,32
    80000216:	8082                	ret

0000000080000218 <sprintf_putch.0>:
  va_start(ap, fmt);

  void sprintf_putch(int ch, void** data)
  {
    char** pstr = (char**)data;
    **pstr = ch;
    80000218:	619c                	ld	a5,0(a1)
    8000021a:	00a78023          	sb	a0,0(a5)
    (*pstr)++;
    8000021e:	619c                	ld	a5,0(a1)
    80000220:	0785                	addi	a5,a5,1
    80000222:	e19c                	sd	a5,0(a1)
  }
    80000224:	8082                	ret

0000000080000226 <uartInit>:
	*UART_LCR = 0b0000011; // 8-bit characters, 1 stop bit, no parity
    80000226:	100007b7          	lui	a5,0x10000
    8000022a:	470d                	li	a4,3
    8000022c:	00e781a3          	sb	a4,3(a5) # 10000003 <_start-0x6ffffffd>
}
    80000230:	8082                	ret

0000000080000232 <uartSend>:
	while (!(*UART_LSR & (1<<5))); // wait for THRE (trans hold reg empty)
    80000232:	10000737          	lui	a4,0x10000
    80000236:	0715                	addi	a4,a4,5 # 10000005 <_start-0x6ffffffb>
    80000238:	00074783          	lbu	a5,0(a4)
    8000023c:	0207f793          	andi	a5,a5,32
    80000240:	dfe5                	beqz	a5,80000238 <uartSend+0x6>
	*UART_THR = c;
    80000242:	100007b7          	lui	a5,0x10000
    80000246:	00a78023          	sb	a0,0(a5) # 10000000 <_start-0x70000000>
}
    8000024a:	8082                	ret

000000008000024c <putchar>:
{
    8000024c:	1141                	addi	sp,sp,-16
    8000024e:	e406                	sd	ra,8(sp)
  uartSend(ch);
    80000250:	0ff57513          	zext.b	a0,a0
    80000254:	fdfff0ef          	jal	80000232 <uartSend>
}
    80000258:	4501                	li	a0,0
    8000025a:	60a2                	ld	ra,8(sp)
    8000025c:	0141                	addi	sp,sp,16
    8000025e:	8082                	ret

0000000080000260 <uartReceive>:
	while (!(*UART_LSR & (1<<0))); // wait for DR (Data Ready)
    80000260:	10000737          	lui	a4,0x10000
    80000264:	0715                	addi	a4,a4,5 # 10000005 <_start-0x6ffffffb>
    80000266:	00074783          	lbu	a5,0(a4)
    8000026a:	8b85                	andi	a5,a5,1
    8000026c:	dfed                	beqz	a5,80000266 <uartReceive+0x6>
	return *UART_RBR;
    8000026e:	100007b7          	lui	a5,0x10000
    80000272:	0007c503          	lbu	a0,0(a5) # 10000000 <_start-0x70000000>
}
    80000276:	8082                	ret

0000000080000278 <uartPutStr>:
char uartPutStr(const char *str) {
    80000278:	1141                	addi	sp,sp,-16
    8000027a:	e406                	sd	ra,8(sp)
    8000027c:	e022                	sd	s0,0(sp)
    8000027e:	842a                	mv	s0,a0
    while (*str) {
    80000280:	00054503          	lbu	a0,0(a0)
    80000284:	c519                	beqz	a0,80000292 <uartPutStr+0x1a>
        uartSend(*str++);
    80000286:	0405                	addi	s0,s0,1
    80000288:	fabff0ef          	jal	80000232 <uartSend>
    while (*str) {
    8000028c:	00044503          	lbu	a0,0(s0)
    80000290:	f97d                	bnez	a0,80000286 <uartPutStr+0xe>
}
    80000292:	60a2                	ld	ra,8(sp)
    80000294:	6402                	ld	s0,0(sp)
    80000296:	0141                	addi	sp,sp,16
    80000298:	8082                	ret

000000008000029a <setStats>:
  READ_CTR(mcycle);
    8000029a:	b00027f3          	csrr	a5,mcycle
    8000029e:	ed01                	bnez	a0,800002b6 <setStats+0x1c>
    800002a0:	00001717          	auipc	a4,0x1
    800002a4:	da870713          	addi	a4,a4,-600 # 80001048 <counters>
    800002a8:	6314                	ld	a3,0(a4)
    800002aa:	8f95                	sub	a5,a5,a3
    800002ac:	00000697          	auipc	a3,0x0
    800002b0:	63468693          	addi	a3,a3,1588 # 800008e0 <atol+0x6e>
    800002b4:	eb14                	sd	a3,16(a4)
    800002b6:	00001717          	auipc	a4,0x1
    800002ba:	d8f73923          	sd	a5,-622(a4) # 80001048 <counters>
  READ_CTR(minstret);
    800002be:	b02027f3          	csrr	a5,minstret
    800002c2:	ed01                	bnez	a0,800002da <setStats+0x40>
    800002c4:	00001717          	auipc	a4,0x1
    800002c8:	d8470713          	addi	a4,a4,-636 # 80001048 <counters>
    800002cc:	6714                	ld	a3,8(a4)
    800002ce:	8f95                	sub	a5,a5,a3
    800002d0:	00000697          	auipc	a3,0x0
    800002d4:	62068693          	addi	a3,a3,1568 # 800008f0 <atol+0x7e>
    800002d8:	ef14                	sd	a3,24(a4)
    800002da:	80f1b423          	sd	a5,-2040(gp) # 80001050 <counters+0x8>
}
    800002de:	8082                	ret

00000000800002e0 <tohost_exit>:
  tohost = (code << 1) | 1;
    800002e0:	00151793          	slli	a5,a0,0x1
    800002e4:	0017e793          	ori	a5,a5,1
    800002e8:	00001717          	auipc	a4,0x1
    800002ec:	d0f73c23          	sd	a5,-744(a4) # 80001000 <tohost>
  while (1);
    800002f0:	a001                	j	800002f0 <tohost_exit+0x10>

00000000800002f2 <handle_trap>:
{
    800002f2:	1141                	addi	sp,sp,-16
    800002f4:	e406                	sd	ra,8(sp)
  tohost_exit(1337);
    800002f6:	53900513          	li	a0,1337
    800002fa:	fe7ff0ef          	jal	800002e0 <tohost_exit>

00000000800002fe <exit>:
{
    800002fe:	1141                	addi	sp,sp,-16
    80000300:	e406                	sd	ra,8(sp)
  tohost_exit(code);
    80000302:	fdfff0ef          	jal	800002e0 <tohost_exit>

0000000080000306 <abort>:
{
    80000306:	1141                	addi	sp,sp,-16
    80000308:	e406                	sd	ra,8(sp)
  tohost_exit(code);
    8000030a:	08600513          	li	a0,134
    8000030e:	fd3ff0ef          	jal	800002e0 <tohost_exit>

0000000080000312 <printstr>:
{
    80000312:	1141                	addi	sp,sp,-16
    80000314:	e406                	sd	ra,8(sp)
  uartPutStr(s);
    80000316:	f63ff0ef          	jal	80000278 <uartPutStr>
}
    8000031a:	60a2                	ld	ra,8(sp)
    8000031c:	0141                	addi	sp,sp,16
    8000031e:	8082                	ret

0000000080000320 <puts>:
{
    80000320:	1141                	addi	sp,sp,-16
    80000322:	e406                	sd	ra,8(sp)
  uartPutStr(s);
    80000324:	f55ff0ef          	jal	80000278 <uartPutStr>
}
    80000328:	4501                	li	a0,0
    8000032a:	60a2                	ld	ra,8(sp)
    8000032c:	0141                	addi	sp,sp,16
    8000032e:	8082                	ret

0000000080000330 <thread_entry>:
  while (cid != 0);
    80000330:	e111                	bnez	a0,80000334 <thread_entry+0x4>
}
    80000332:	8082                	ret
  while (cid != 0);
    80000334:	a001                	j	80000334 <thread_entry+0x4>
{
    80000336:	1141                	addi	sp,sp,-16
    80000338:	e406                	sd	ra,8(sp)
  uartPutStr(s);
    8000033a:	00000517          	auipc	a0,0x0
    8000033e:	5c650513          	addi	a0,a0,1478 # 80000900 <atol+0x8e>
    80000342:	f37ff0ef          	jal	80000278 <uartPutStr>
}
    80000346:	557d                	li	a0,-1
    80000348:	60a2                	ld	ra,8(sp)
    8000034a:	0141                	addi	sp,sp,16
    8000034c:	8082                	ret

000000008000034e <printhex>:
{
    8000034e:	7179                	addi	sp,sp,-48
    80000350:	f406                	sd	ra,40(sp)
  for (i = 0; i < 16; i++)
    80000352:	01710693          	addi	a3,sp,23
    80000356:	00810893          	addi	a7,sp,8
    str[15-i] = (x & 0xF) + ((x & 0xF) < 10 ? '0' : 'a'-10);
    8000035a:	4825                	li	a6,9
    8000035c:	05700593          	li	a1,87
    80000360:	03000313          	li	t1,48
    80000364:	a811                	j	80000378 <printhex+0x2a>
    80000366:	9fb1                	addw	a5,a5,a2
    80000368:	00f68023          	sb	a5,0(a3)
    x >>= 4;
    8000036c:	8111                	srli	a0,a0,0x4
  for (i = 0; i < 16; i++)
    8000036e:	fff68793          	addi	a5,a3,-1
    80000372:	01168a63          	beq	a3,a7,80000386 <printhex+0x38>
    80000376:	86be                	mv	a3,a5
    str[15-i] = (x & 0xF) + ((x & 0xF) < 10 ? '0' : 'a'-10);
    80000378:	00f57793          	andi	a5,a0,15
    8000037c:	862e                	mv	a2,a1
    8000037e:	fef864e3          	bltu	a6,a5,80000366 <printhex+0x18>
    80000382:	861a                	mv	a2,t1
    80000384:	b7cd                	j	80000366 <printhex+0x18>
  str[16] = 0;
    80000386:	00010c23          	sb	zero,24(sp)
  uartPutStr(s);
    8000038a:	0028                	addi	a0,sp,8
    8000038c:	eedff0ef          	jal	80000278 <uartPutStr>
}
    80000390:	70a2                	ld	ra,40(sp)
    80000392:	6145                	addi	sp,sp,48
    80000394:	8082                	ret

0000000080000396 <memcpy>:
  return str - str0;
}

void* memcpy(void* dest, const void* src, size_t len)
{
  if ((((uintptr_t)dest | (uintptr_t)src | len) & (sizeof(uintptr_t)-1)) == 0) {
    80000396:	00c5e7b3          	or	a5,a1,a2
    8000039a:	8fc9                	or	a5,a5,a0
    8000039c:	8b9d                	andi	a5,a5,7
    8000039e:	c38d                	beqz	a5,800003c0 <memcpy+0x2a>
    while (d < (uintptr_t*)(dest + len))
      *d++ = *s++;
  } else {
    const char* s = src;
    char *d = dest;
    while (d < (char*)(dest + len))
    800003a0:	00c50733          	add	a4,a0,a2
    800003a4:	962e                	add	a2,a2,a1
    char *d = dest;
    800003a6:	87aa                	mv	a5,a0
    while (d < (char*)(dest + len))
    800003a8:	00e57b63          	bgeu	a0,a4,800003be <memcpy+0x28>
      *d++ = *s++;
    800003ac:	0585                	addi	a1,a1,1
    800003ae:	0785                	addi	a5,a5,1
    800003b0:	fff5c703          	lbu	a4,-1(a1)
    800003b4:	fee78fa3          	sb	a4,-1(a5)
    while (d < (char*)(dest + len))
    800003b8:	feb61ae3          	bne	a2,a1,800003ac <memcpy+0x16>
  }
  return dest;
}
    800003bc:	8082                	ret
    800003be:	8082                	ret
    while (d < (uintptr_t*)(dest + len))
    800003c0:	962a                	add	a2,a2,a0
    800003c2:	fec57de3          	bgeu	a0,a2,800003bc <memcpy+0x26>
    uintptr_t *d = dest;
    800003c6:	87aa                	mv	a5,a0
      *d++ = *s++;
    800003c8:	05a1                	addi	a1,a1,8
    800003ca:	07a1                	addi	a5,a5,8
    800003cc:	ff85b703          	ld	a4,-8(a1)
    800003d0:	fee7bc23          	sd	a4,-8(a5)
    while (d < (uintptr_t*)(dest + len))
    800003d4:	fec7eae3          	bltu	a5,a2,800003c8 <memcpy+0x32>
    800003d8:	8082                	ret

00000000800003da <memset>:

void* memset(void* dest, int byte, size_t len)
{
  if ((((uintptr_t)dest | len) & (sizeof(uintptr_t)-1)) == 0) {
    800003da:	00c567b3          	or	a5,a0,a2
    800003de:	8b9d                	andi	a5,a5,7
    800003e0:	cf81                	beqz	a5,800003f8 <memset+0x1e>
    uintptr_t *d = dest;
    while (d < (uintptr_t*)(dest + len))
      *d++ = word;
  } else {
    char *d = dest;
    while (d < (char*)(dest + len))
    800003e2:	962a                	add	a2,a2,a0
    char *d = dest;
    800003e4:	87aa                	mv	a5,a0
    while (d < (char*)(dest + len))
    800003e6:	00c57863          	bgeu	a0,a2,800003f6 <memset+0x1c>
      *d++ = byte;
    800003ea:	0785                	addi	a5,a5,1
    800003ec:	feb78fa3          	sb	a1,-1(a5)
    while (d < (char*)(dest + len))
    800003f0:	fec79de3          	bne	a5,a2,800003ea <memset+0x10>
  }
  return dest;
}
    800003f4:	8082                	ret
    800003f6:	8082                	ret
    uintptr_t word = byte & 0xFF;
    800003f8:	0ff5f593          	zext.b	a1,a1
    800003fc:	010107b7          	lui	a5,0x1010
    80000400:	10178793          	addi	a5,a5,257 # 1010101 <_start-0x7efefeff>
    80000404:	02079713          	slli	a4,a5,0x20
    80000408:	97ba                	add	a5,a5,a4
    8000040a:	02f585b3          	mul	a1,a1,a5
    while (d < (uintptr_t*)(dest + len))
    8000040e:	962a                	add	a2,a2,a0
    80000410:	fec572e3          	bgeu	a0,a2,800003f4 <memset+0x1a>
    uintptr_t *d = dest;
    80000414:	87aa                	mv	a5,a0
      *d++ = word;
    80000416:	07a1                	addi	a5,a5,8
    80000418:	feb7bc23          	sd	a1,-8(a5)
    while (d < (uintptr_t*)(dest + len))
    8000041c:	fec7ede3          	bltu	a5,a2,80000416 <memset+0x3c>
    80000420:	8082                	ret

0000000080000422 <strlen>:

size_t strlen(const char *s)
{
  const char *p = s;
  while (*p)
    80000422:	00054783          	lbu	a5,0(a0)
    80000426:	cb89                	beqz	a5,80000438 <strlen+0x16>
  const char *p = s;
    80000428:	87aa                	mv	a5,a0
    p++;
    8000042a:	0785                	addi	a5,a5,1
  while (*p)
    8000042c:	0007c703          	lbu	a4,0(a5)
    80000430:	ff6d                	bnez	a4,8000042a <strlen+0x8>
  return p - s;
}
    80000432:	40a78533          	sub	a0,a5,a0
    80000436:	8082                	ret
  const char *p = s;
    80000438:	87aa                	mv	a5,a0
    8000043a:	bfe5                	j	80000432 <strlen+0x10>

000000008000043c <strnlen>:

size_t strnlen(const char *s, size_t n)
{
  const char *p = s;
  while (n-- && *p)
    8000043c:	cd89                	beqz	a1,80000456 <strnlen+0x1a>
    8000043e:	95aa                	add	a1,a1,a0
  const char *p = s;
    80000440:	87aa                	mv	a5,a0
  while (n-- && *p)
    80000442:	0007c703          	lbu	a4,0(a5)
    80000446:	c709                	beqz	a4,80000450 <strnlen+0x14>
    p++;
    80000448:	0785                	addi	a5,a5,1
  while (n-- && *p)
    8000044a:	feb79ce3          	bne	a5,a1,80000442 <strnlen+0x6>
    8000044e:	87ae                	mv	a5,a1
  return p - s;
}
    80000450:	40a78533          	sub	a0,a5,a0
    80000454:	8082                	ret
  const char *p = s;
    80000456:	87aa                	mv	a5,a0
    80000458:	bfe5                	j	80000450 <strnlen+0x14>

000000008000045a <vprintfmt>:
{
    8000045a:	7149                	addi	sp,sp,-368
    8000045c:	f686                	sd	ra,360(sp)
    8000045e:	f2a2                	sd	s0,352(sp)
    80000460:	eea6                	sd	s1,344(sp)
    80000462:	eaca                	sd	s2,336(sp)
    80000464:	e6ce                	sd	s3,328(sp)
    80000466:	e2d2                	sd	s4,320(sp)
    80000468:	fe56                	sd	s5,312(sp)
    8000046a:	fa5a                	sd	s6,304(sp)
    8000046c:	f65e                	sd	s7,296(sp)
    8000046e:	f262                	sd	s8,288(sp)
    80000470:	ea6a                	sd	s10,272(sp)
    80000472:	e66e                	sd	s11,264(sp)
    80000474:	892a                	mv	s2,a0
    80000476:	84ae                	mv	s1,a1
    80000478:	8432                	mv	s0,a2
    8000047a:	8c36                	mv	s8,a3
    while ((ch = *(unsigned char *) fmt) != '%') {
    8000047c:	02500a13          	li	s4,37
    precision = -1;
    80000480:	5dfd                	li	s11,-1
    switch (ch = *(unsigned char *) fmt++) {
    80000482:	00000d17          	auipc	s10,0x0
    80000486:	4aad0d13          	addi	s10,s10,1194 # 8000092c <atol+0xba>
    while ((ch = *(unsigned char *) fmt) != '%') {
    8000048a:	00044503          	lbu	a0,0(s0)
    8000048e:	01450b63          	beq	a0,s4,800004a4 <vprintfmt+0x4a>
      if (ch == '\0')
    80000492:	26050a63          	beqz	a0,80000706 <vprintfmt+0x2ac>
      fmt++;
    80000496:	0405                	addi	s0,s0,1
      putch(ch, putdat);
    80000498:	85a6                	mv	a1,s1
    8000049a:	9902                	jalr	s2
    while ((ch = *(unsigned char *) fmt) != '%') {
    8000049c:	00044503          	lbu	a0,0(s0)
    800004a0:	ff4519e3          	bne	a0,s4,80000492 <vprintfmt+0x38>
    fmt++;
    800004a4:	00140a93          	addi	s5,s0,1
    800004a8:	8756                	mv	a4,s5
    padc = ' ';
    800004aa:	02000b93          	li	s7,32
    precision = -1;
    800004ae:	89ee                	mv	s3,s11
    width = -1;
    800004b0:	8b6e                	mv	s6,s11
    lflag = 0;
    800004b2:	4601                	li	a2,0
    switch (ch = *(unsigned char *) fmt++) {
    800004b4:	05500693          	li	a3,85
    800004b8:	00170413          	addi	s0,a4,1
    800004bc:	00074583          	lbu	a1,0(a4)
    800004c0:	fdd5879b          	addiw	a5,a1,-35
    800004c4:	0ff7f513          	zext.b	a0,a5
    800004c8:	20a6ea63          	bltu	a3,a0,800006dc <vprintfmt+0x282>
    800004cc:	00251793          	slli	a5,a0,0x2
    800004d0:	97ea                	add	a5,a5,s10
    800004d2:	439c                	lw	a5,0(a5)
    800004d4:	97ea                	add	a5,a5,s10
    800004d6:	8782                	jr	a5
      if ((p = va_arg(ap, char *)) == NULL)
    800004d8:	8c56                	mv	s8,s5
    800004da:	bf45                	j	8000048a <vprintfmt+0x30>
    switch (ch = *(unsigned char *) fmt++) {
    800004dc:	8bae                	mv	s7,a1
    800004de:	8722                	mv	a4,s0
    800004e0:	bfe1                	j	800004b8 <vprintfmt+0x5e>
    800004e2:	ee66                	sd	s9,280(sp)
      base = 8;
    800004e4:	45a1                	li	a1,8
    800004e6:	aa91                	j	8000063a <vprintfmt+0x1e0>
        precision = precision * 10 + ch - '0';
    800004e8:	fd05899b          	addiw	s3,a1,-48
        ch = *fmt;
    800004ec:	00174783          	lbu	a5,1(a4)
    800004f0:	0007871b          	sext.w	a4,a5
        if (ch < '0' || ch > '9')
    800004f4:	fd07879b          	addiw	a5,a5,-48
    800004f8:	45a5                	li	a1,9
    800004fa:	04f5ea63          	bltu	a1,a5,8000054e <vprintfmt+0xf4>
      for (precision = 0; ; ++fmt) {
    800004fe:	0405                	addi	s0,s0,1
        precision = precision * 10 + ch - '0';
    80000500:	0029979b          	slliw	a5,s3,0x2
    80000504:	013787bb          	addw	a5,a5,s3
    80000508:	0017979b          	slliw	a5,a5,0x1
    8000050c:	9fb9                	addw	a5,a5,a4
    8000050e:	fd07899b          	addiw	s3,a5,-48
        ch = *fmt;
    80000512:	00044783          	lbu	a5,0(s0)
    80000516:	0007871b          	sext.w	a4,a5
        if (ch < '0' || ch > '9')
    8000051a:	fd07879b          	addiw	a5,a5,-48
    8000051e:	fef5f0e3          	bgeu	a1,a5,800004fe <vprintfmt+0xa4>
    80000522:	8722                	mv	a4,s0
    80000524:	a029                	j	8000052e <vprintfmt+0xd4>
      precision = va_arg(ap, int);
    80000526:	000c2983          	lw	s3,0(s8)
    8000052a:	0c21                	addi	s8,s8,8
    switch (ch = *(unsigned char *) fmt++) {
    8000052c:	8722                	mv	a4,s0
      if (width < 0)
    8000052e:	f80b55e3          	bgez	s6,800004b8 <vprintfmt+0x5e>
        width = precision, precision = -1;
    80000532:	8b4e                	mv	s6,s3
    80000534:	59fd                	li	s3,-1
    80000536:	b749                	j	800004b8 <vprintfmt+0x5e>
      if (width < 0)
    80000538:	87da                	mv	a5,s6
    8000053a:	000b4663          	bltz	s6,80000546 <vprintfmt+0xec>
    8000053e:	00078b1b          	sext.w	s6,a5
    switch (ch = *(unsigned char *) fmt++) {
    80000542:	8722                	mv	a4,s0
      goto reswitch;
    80000544:	bf95                	j	800004b8 <vprintfmt+0x5e>
      if (width < 0)
    80000546:	4781                	li	a5,0
    80000548:	bfdd                	j	8000053e <vprintfmt+0xe4>
    switch (ch = *(unsigned char *) fmt++) {
    8000054a:	8722                	mv	a4,s0
      goto reswitch;
    8000054c:	b7b5                	j	800004b8 <vprintfmt+0x5e>
    switch (ch = *(unsigned char *) fmt++) {
    8000054e:	8722                	mv	a4,s0
    80000550:	bff9                	j	8000052e <vprintfmt+0xd4>
      lflag++;
    80000552:	2605                	addiw	a2,a2,1
    switch (ch = *(unsigned char *) fmt++) {
    80000554:	8722                	mv	a4,s0
      goto reswitch;
    80000556:	b78d                	j	800004b8 <vprintfmt+0x5e>
      putch(va_arg(ap, int), putdat);
    80000558:	008c0993          	addi	s3,s8,8
    8000055c:	85a6                	mv	a1,s1
    8000055e:	000c2503          	lw	a0,0(s8)
    80000562:	9902                	jalr	s2
    80000564:	8c4e                	mv	s8,s3
      break;
    80000566:	b715                	j	8000048a <vprintfmt+0x30>
      if ((p = va_arg(ap, char *)) == NULL)
    80000568:	008c0a93          	addi	s5,s8,8
    8000056c:	000c3c03          	ld	s8,0(s8)
    80000570:	180c0263          	beqz	s8,800006f4 <vprintfmt+0x29a>
      if (width > 0 && padc != '-')
    80000574:	17605a63          	blez	s6,800006e8 <vprintfmt+0x28e>
    80000578:	02d00793          	li	a5,45
    8000057c:	00fb9663          	bne	s7,a5,80000588 <vprintfmt+0x12e>
      for (; (ch = *p) != '\0' && (precision < 0 || --precision >= 0); width--) {
    80000580:	000c4503          	lbu	a0,0(s8)
    80000584:	ed0d                	bnez	a0,800005be <vprintfmt+0x164>
    80000586:	a099                	j	800005cc <vprintfmt+0x172>
        for (width -= strnlen(p, precision); width > 0; width--)
    80000588:	85ce                	mv	a1,s3
    8000058a:	8562                	mv	a0,s8
    8000058c:	eb1ff0ef          	jal	8000043c <strnlen>
    80000590:	40ab0b3b          	subw	s6,s6,a0
    80000594:	15605a63          	blez	s6,800006e8 <vprintfmt+0x28e>
          putch(padc, putdat);
    80000598:	2b81                	sext.w	s7,s7
    8000059a:	85a6                	mv	a1,s1
    8000059c:	855e                	mv	a0,s7
    8000059e:	9902                	jalr	s2
        for (width -= strnlen(p, precision); width > 0; width--)
    800005a0:	3b7d                	addiw	s6,s6,-1
    800005a2:	fe0b1ce3          	bnez	s6,8000059a <vprintfmt+0x140>
      for (; (ch = *p) != '\0' && (precision < 0 || --precision >= 0); width--) {
    800005a6:	000c4503          	lbu	a0,0(s8)
    800005aa:	e911                	bnez	a0,800005be <vprintfmt+0x164>
    800005ac:	8b2a                	mv	s6,a0
    800005ae:	a829                	j	800005c8 <vprintfmt+0x16e>
        putch(ch, putdat);
    800005b0:	85a6                	mv	a1,s1
    800005b2:	9902                	jalr	s2
        p++;
    800005b4:	0c05                	addi	s8,s8,1
      for (; (ch = *p) != '\0' && (precision < 0 || --precision >= 0); width--) {
    800005b6:	3b7d                	addiw	s6,s6,-1
    800005b8:	000c4503          	lbu	a0,0(s8)
    800005bc:	c511                	beqz	a0,800005c8 <vprintfmt+0x16e>
    800005be:	fe09c9e3          	bltz	s3,800005b0 <vprintfmt+0x156>
    800005c2:	39fd                	addiw	s3,s3,-1
    800005c4:	fe09d6e3          	bgez	s3,800005b0 <vprintfmt+0x156>
      for (; width > 0; width--)
    800005c8:	f16058e3          	blez	s6,800004d8 <vprintfmt+0x7e>
        putch(' ', putdat);
    800005cc:	02000993          	li	s3,32
    800005d0:	85a6                	mv	a1,s1
    800005d2:	854e                	mv	a0,s3
    800005d4:	9902                	jalr	s2
      for (; width > 0; width--)
    800005d6:	3b7d                	addiw	s6,s6,-1
    800005d8:	fe0b1ce3          	bnez	s6,800005d0 <vprintfmt+0x176>
      if ((p = va_arg(ap, char *)) == NULL)
    800005dc:	8c56                	mv	s8,s5
    800005de:	b575                	j	8000048a <vprintfmt+0x30>
    800005e0:	ee66                	sd	s9,280(sp)
  if (lflag >= 2)
    800005e2:	4785                	li	a5,1
    800005e4:	00c7c763          	blt	a5,a2,800005f2 <vprintfmt+0x198>
  else if (lflag)
    800005e8:	ce09                	beqz	a2,80000602 <vprintfmt+0x1a8>
    return va_arg(*ap, long);
    800005ea:	000c3983          	ld	s3,0(s8)
    800005ee:	0c21                	addi	s8,s8,8
    800005f0:	a021                	j	800005f8 <vprintfmt+0x19e>
    return va_arg(*ap, long long);
    800005f2:	000c3983          	ld	s3,0(s8)
    800005f6:	0c21                	addi	s8,s8,8
      if ((long long) num < 0) {
    800005f8:	0009c963          	bltz	s3,8000060a <vprintfmt+0x1b0>
      num = getint(&ap, lflag);
    800005fc:	87ce                	mv	a5,s3
      base = 10;
    800005fe:	45a9                	li	a1,10
    80000600:	a099                	j	80000646 <vprintfmt+0x1ec>
    return va_arg(*ap, int);
    80000602:	000c2983          	lw	s3,0(s8)
    80000606:	0c21                	addi	s8,s8,8
    80000608:	bfc5                	j	800005f8 <vprintfmt+0x19e>
        putch('-', putdat);
    8000060a:	85a6                	mv	a1,s1
    8000060c:	02d00513          	li	a0,45
    80000610:	9902                	jalr	s2
        num = -(long long) num;
    80000612:	413007b3          	neg	a5,s3
      base = 10;
    80000616:	45a9                	li	a1,10
    80000618:	a03d                	j	80000646 <vprintfmt+0x1ec>
    8000061a:	ee66                	sd	s9,280(sp)
      putch('0', putdat);
    8000061c:	85a6                	mv	a1,s1
    8000061e:	03000513          	li	a0,48
    80000622:	9902                	jalr	s2
      putch('x', putdat);
    80000624:	85a6                	mv	a1,s1
    80000626:	07800513          	li	a0,120
    8000062a:	9902                	jalr	s2
      base = 16;
    8000062c:	45c1                	li	a1,16
    return va_arg(*ap, unsigned long);
    8000062e:	000c3783          	ld	a5,0(s8)
    80000632:	0c21                	addi	s8,s8,8
    80000634:	a809                	j	80000646 <vprintfmt+0x1ec>
    80000636:	ee66                	sd	s9,280(sp)
      base = 16;
    80000638:	45c1                	li	a1,16
  if (lflag >= 2)
    8000063a:	4785                	li	a5,1
    8000063c:	06c7d663          	bge	a5,a2,800006a8 <vprintfmt+0x24e>
    return va_arg(*ap, unsigned long long);
    80000640:	000c3783          	ld	a5,0(s8)
    80000644:	0c21                	addi	s8,s8,8
      printnum(putch, putdat, num, base, width, padc);
    80000646:	2b81                	sext.w	s7,s7
    digs[pos++] = num % base;
    80000648:	02059693          	slli	a3,a1,0x20
    8000064c:	9281                	srli	a3,a3,0x20
    8000064e:	02b7f733          	remu	a4,a5,a1
    80000652:	c03a                	sw	a4,0(sp)
    if (num < base)
    80000654:	0058                	addi	a4,sp,4
    digs[pos++] = num % base;
    80000656:	4985                	li	s3,1
    if (num < base)
    80000658:	00b7eb63          	bltu	a5,a1,8000066e <vprintfmt+0x214>
    num /= base;
    8000065c:	02d7d7b3          	divu	a5,a5,a3
    digs[pos++] = num % base;
    80000660:	2985                	addiw	s3,s3,1
    80000662:	02d7f633          	remu	a2,a5,a3
    80000666:	c310                	sw	a2,0(a4)
    if (num < base)
    80000668:	0711                	addi	a4,a4,4
    8000066a:	fed7f9e3          	bgeu	a5,a3,8000065c <vprintfmt+0x202>
  while (width-- > pos)
    8000066e:	fffb0a9b          	addiw	s5,s6,-1
    80000672:	fff98c9b          	addiw	s9,s3,-1
    80000676:	0169d863          	bge	s3,s6,80000686 <vprintfmt+0x22c>
    putch(padc, putdat);
    8000067a:	85a6                	mv	a1,s1
    8000067c:	855e                	mv	a0,s7
    8000067e:	9902                	jalr	s2
  while (width-- > pos)
    80000680:	3afd                	addiw	s5,s5,-1
    80000682:	ff9a9ce3          	bne	s5,s9,8000067a <vprintfmt+0x220>
  while (pos-- > 0)
    80000686:	00299a93          	slli	s5,s3,0x2
    8000068a:	100a8793          	addi	a5,s5,256
    8000068e:	00278ab3          	add	s5,a5,sp
    80000692:	efca8a93          	addi	s5,s5,-260
    putch(digs[pos] + (digs[pos] >= 10 ? 'a' - 10 : '0'), putdat);
    80000696:	4ba5                	li	s7,9
    80000698:	03000b13          	li	s6,48
    8000069c:	05700c93          	li	s9,87
    800006a0:	a005                	j	800006c0 <vprintfmt+0x266>
    800006a2:	ee66                	sd	s9,280(sp)
    switch (ch = *(unsigned char *) fmt++) {
    800006a4:	45a9                	li	a1,10
    800006a6:	bf51                	j	8000063a <vprintfmt+0x1e0>
  else if (lflag)
    800006a8:	f259                	bnez	a2,8000062e <vprintfmt+0x1d4>
    return va_arg(*ap, unsigned int);
    800006aa:	000c6783          	lwu	a5,0(s8)
    800006ae:	0c21                	addi	s8,s8,8
    800006b0:	bf59                	j	80000646 <vprintfmt+0x1ec>
    putch(digs[pos] + (digs[pos] >= 10 ? 'a' - 10 : '0'), putdat);
    800006b2:	85a6                	mv	a1,s1
    800006b4:	9d3d                	addw	a0,a0,a5
    800006b6:	9902                	jalr	s2
  while (pos-- > 0)
    800006b8:	1af1                	addi	s5,s5,-4
    800006ba:	39fd                	addiw	s3,s3,-1
    800006bc:	01305963          	blez	s3,800006ce <vprintfmt+0x274>
    putch(digs[pos] + (digs[pos] >= 10 ? 'a' - 10 : '0'), putdat);
    800006c0:	000aa783          	lw	a5,0(s5)
    800006c4:	855a                	mv	a0,s6
    800006c6:	fefbf6e3          	bgeu	s7,a5,800006b2 <vprintfmt+0x258>
    800006ca:	8566                	mv	a0,s9
    800006cc:	b7dd                	j	800006b2 <vprintfmt+0x258>
    800006ce:	6cf2                	ld	s9,280(sp)
    800006d0:	bb6d                	j	8000048a <vprintfmt+0x30>
      putch(ch, putdat);
    800006d2:	85a6                	mv	a1,s1
    800006d4:	02500513          	li	a0,37
    800006d8:	9902                	jalr	s2
      break;
    800006da:	bb45                	j	8000048a <vprintfmt+0x30>
      putch('%', putdat);
    800006dc:	85a6                	mv	a1,s1
    800006de:	02500513          	li	a0,37
    800006e2:	9902                	jalr	s2
      fmt = last_fmt;
    800006e4:	8456                	mv	s0,s5
      break;
    800006e6:	b355                	j	8000048a <vprintfmt+0x30>
      for (; (ch = *p) != '\0' && (precision < 0 || --precision >= 0); width--) {
    800006e8:	000c4503          	lbu	a0,0(s8)
    800006ec:	ec0519e3          	bnez	a0,800005be <vprintfmt+0x164>
      if ((p = va_arg(ap, char *)) == NULL)
    800006f0:	8c56                	mv	s8,s5
    800006f2:	bb61                	j	8000048a <vprintfmt+0x30>
        p = "(null)";
    800006f4:	00000c17          	auipc	s8,0x0
    800006f8:	224c0c13          	addi	s8,s8,548 # 80000918 <atol+0xa6>
      for (; (ch = *p) != '\0' && (precision < 0 || --precision >= 0); width--) {
    800006fc:	02800513          	li	a0,40
      if (width > 0 && padc != '-')
    80000700:	e7604ce3          	bgtz	s6,80000578 <vprintfmt+0x11e>
    80000704:	bd6d                	j	800005be <vprintfmt+0x164>
}
    80000706:	70b6                	ld	ra,360(sp)
    80000708:	7416                	ld	s0,352(sp)
    8000070a:	64f6                	ld	s1,344(sp)
    8000070c:	6956                	ld	s2,336(sp)
    8000070e:	69b6                	ld	s3,328(sp)
    80000710:	6a16                	ld	s4,320(sp)
    80000712:	7af2                	ld	s5,312(sp)
    80000714:	7b52                	ld	s6,304(sp)
    80000716:	7bb2                	ld	s7,296(sp)
    80000718:	7c12                	ld	s8,288(sp)
    8000071a:	6d52                	ld	s10,272(sp)
    8000071c:	6db2                	ld	s11,264(sp)
    8000071e:	6175                	addi	sp,sp,368
    80000720:	8082                	ret

0000000080000722 <printf>:
{
    80000722:	711d                	addi	sp,sp,-96
    80000724:	ec06                	sd	ra,24(sp)
    80000726:	f42e                	sd	a1,40(sp)
    80000728:	f832                	sd	a2,48(sp)
    8000072a:	fc36                	sd	a3,56(sp)
    8000072c:	e0ba                	sd	a4,64(sp)
    8000072e:	e4be                	sd	a5,72(sp)
    80000730:	e8c2                	sd	a6,80(sp)
    80000732:	ecc6                	sd	a7,88(sp)
  va_start(ap, fmt);
    80000734:	1034                	addi	a3,sp,40
    80000736:	e436                	sd	a3,8(sp)
  vprintfmt((void*)putchar, 0, fmt, ap);
    80000738:	862a                	mv	a2,a0
    8000073a:	4581                	li	a1,0
    8000073c:	00000517          	auipc	a0,0x0
    80000740:	b1050513          	addi	a0,a0,-1264 # 8000024c <putchar>
    80000744:	d17ff0ef          	jal	8000045a <vprintfmt>
}
    80000748:	4501                	li	a0,0
    8000074a:	60e2                	ld	ra,24(sp)
    8000074c:	6125                	addi	sp,sp,96
    8000074e:	8082                	ret

0000000080000750 <sprintf>:
{
    80000750:	711d                	addi	sp,sp,-96
    80000752:	f406                	sd	ra,40(sp)
    80000754:	f022                	sd	s0,32(sp)
    80000756:	e42a                	sd	a0,8(sp)
    80000758:	f832                	sd	a2,48(sp)
    8000075a:	fc36                	sd	a3,56(sp)
    8000075c:	e0ba                	sd	a4,64(sp)
    8000075e:	e4be                	sd	a5,72(sp)
    80000760:	e8c2                	sd	a6,80(sp)
    80000762:	ecc6                	sd	a7,88(sp)
  char* str0 = str;
    80000764:	842a                	mv	s0,a0
  va_start(ap, fmt);
    80000766:	1814                	addi	a3,sp,48
    80000768:	ec36                	sd	a3,24(sp)
  vprintfmt(sprintf_putch, (void**)&str, fmt, ap);
    8000076a:	862e                	mv	a2,a1
    8000076c:	002c                	addi	a1,sp,8
    8000076e:	00000517          	auipc	a0,0x0
    80000772:	aaa50513          	addi	a0,a0,-1366 # 80000218 <sprintf_putch.0>
    80000776:	ce5ff0ef          	jal	8000045a <vprintfmt>
  *str = 0;
    8000077a:	67a2                	ld	a5,8(sp)
    8000077c:	00078023          	sb	zero,0(a5)
}
    80000780:	6522                	ld	a0,8(sp)
    80000782:	9d01                	subw	a0,a0,s0
    80000784:	70a2                	ld	ra,40(sp)
    80000786:	7402                	ld	s0,32(sp)
    80000788:	6125                	addi	sp,sp,96
    8000078a:	8082                	ret

000000008000078c <_init>:
{
    8000078c:	7171                	addi	sp,sp,-176
    8000078e:	f506                	sd	ra,168(sp)
    80000790:	f122                	sd	s0,160(sp)
    80000792:	ed26                	sd	s1,152(sp)
    80000794:	e94a                	sd	s2,144(sp)
    80000796:	e54e                	sd	s3,136(sp)
    80000798:	e152                	sd	s4,128(sp)
    8000079a:	fcd6                	sd	s5,120(sp)
    8000079c:	84aa                	mv	s1,a0
    8000079e:	892e                	mv	s2,a1
    800007a0:	03f10413          	addi	s0,sp,63
    800007a4:	fc047413          	andi	s0,s0,-64
  size_t tdata_size = &_tdata_end - &_tdata_begin;
    800007a8:	82018a13          	addi	s4,gp,-2016 # 80001068 <_end>
    800007ac:	82018593          	addi	a1,gp,-2016 # 80001068 <_end>
    800007b0:	40ba09b3          	sub	s3,s4,a1
  memcpy(thread_pointer, &_tdata_begin, tdata_size);
    800007b4:	8a92                	mv	s5,tp
    800007b6:	864e                	mv	a2,s3
    800007b8:	8512                	mv	a0,tp
    800007ba:	bddff0ef          	jal	80000396 <memcpy>
  memset(thread_pointer + tdata_size, 0, tbss_size);
    800007be:	82018613          	addi	a2,gp,-2016 # 80001068 <_end>
    800007c2:	41460633          	sub	a2,a2,s4
    800007c6:	4581                	li	a1,0
    800007c8:	013a8533          	add	a0,s5,s3
    800007cc:	c0fff0ef          	jal	800003da <memset>
  thread_entry(cid, nc);
    800007d0:	85ca                	mv	a1,s2
    800007d2:	8526                	mv	a0,s1
    800007d4:	b5dff0ef          	jal	80000330 <thread_entry>
	*UART_LCR = 0b0000011; // 8-bit characters, 1 stop bit, no parity
    800007d8:	100007b7          	lui	a5,0x10000
    800007dc:	470d                	li	a4,3
    800007de:	00e781a3          	sb	a4,3(a5) # 10000003 <_start-0x6ffffffd>
  int ret = main(0, 0);
    800007e2:	4581                	li	a1,0
    800007e4:	4501                	li	a0,0
    800007e6:	9f7ff0ef          	jal	800001dc <main>
    800007ea:	84aa                	mv	s1,a0
    if (counters[i])
    800007ec:	00001697          	auipc	a3,0x1
    800007f0:	85c6b683          	ld	a3,-1956(a3) # 80001048 <counters>
    800007f4:	e69d                	bnez	a3,80000822 <_init+0x96>
    800007f6:	8081b683          	ld	a3,-2040(gp) # 80001050 <counters+0x8>
    800007fa:	c28d                	beqz	a3,8000081c <_init+0x90>
  char* pbuf = buf;
    800007fc:	8922                	mv	s2,s0
      pbuf += sprintf(pbuf, "%s = %d\n", counter_names[i], counters[i]);
    800007fe:	8181b603          	ld	a2,-2024(gp) # 80001060 <counter_names+0x8>
    80000802:	00000597          	auipc	a1,0x0
    80000806:	11e58593          	addi	a1,a1,286 # 80000920 <atol+0xae>
    8000080a:	854a                	mv	a0,s2
    8000080c:	f45ff0ef          	jal	80000750 <sprintf>
    80000810:	992a                	add	s2,s2,a0
  if (pbuf != buf)
    80000812:	01240563          	beq	s0,s2,8000081c <_init+0x90>
  uartPutStr(s);
    80000816:	8522                	mv	a0,s0
    80000818:	a61ff0ef          	jal	80000278 <uartPutStr>
  tohost_exit(code);
    8000081c:	8526                	mv	a0,s1
    8000081e:	ac3ff0ef          	jal	800002e0 <tohost_exit>
      pbuf += sprintf(pbuf, "%s = %d\n", counter_names[i], counters[i]);
    80000822:	00001997          	auipc	s3,0x1
    80000826:	82698993          	addi	s3,s3,-2010 # 80001048 <counters>
    8000082a:	0109b603          	ld	a2,16(s3)
    8000082e:	00000597          	auipc	a1,0x0
    80000832:	0f258593          	addi	a1,a1,242 # 80000920 <atol+0xae>
    80000836:	8522                	mv	a0,s0
    80000838:	f19ff0ef          	jal	80000750 <sprintf>
    8000083c:	00a40933          	add	s2,s0,a0
    if (counters[i])
    80000840:	0089b683          	ld	a3,8(s3)
    80000844:	d6f9                	beqz	a3,80000812 <_init+0x86>
    80000846:	bf65                	j	800007fe <_init+0x72>

0000000080000848 <strcmp>:
int strcmp(const char* s1, const char* s2)
{
  unsigned char c1, c2;

  do {
    c1 = *s1++;
    80000848:	0505                	addi	a0,a0,1
    8000084a:	fff54783          	lbu	a5,-1(a0)
    c2 = *s2++;
    8000084e:	0585                	addi	a1,a1,1
    80000850:	fff5c703          	lbu	a4,-1(a1)
  } while (c1 != 0 && c1 == c2);
    80000854:	c399                	beqz	a5,8000085a <strcmp+0x12>
    80000856:	fee789e3          	beq	a5,a4,80000848 <strcmp>

  return c1 - c2;
}
    8000085a:	40e7853b          	subw	a0,a5,a4
    8000085e:	8082                	ret

0000000080000860 <strcpy>:

char* strcpy(char* dest, const char* src)
{
  char* d = dest;
    80000860:	87aa                	mv	a5,a0
  while ((*d++ = *src++))
    80000862:	0585                	addi	a1,a1,1
    80000864:	0785                	addi	a5,a5,1
    80000866:	fff5c703          	lbu	a4,-1(a1)
    8000086a:	fee78fa3          	sb	a4,-1(a5)
    8000086e:	fb75                	bnez	a4,80000862 <strcpy+0x2>
    ;
  return dest;
}
    80000870:	8082                	ret

0000000080000872 <atol>:
long atol(const char* str)
{
  long res = 0;
  int sign = 0;

  while (*str == ' ')
    80000872:	00054783          	lbu	a5,0(a0)
    80000876:	02000713          	li	a4,32
    8000087a:	00e79763          	bne	a5,a4,80000888 <atol+0x16>
    str++;
    8000087e:	0505                	addi	a0,a0,1
  while (*str == ' ')
    80000880:	00054783          	lbu	a5,0(a0)
    80000884:	fee78de3          	beq	a5,a4,8000087e <atol+0xc>

  if (*str == '-' || *str == '+') {
    80000888:	fd57871b          	addiw	a4,a5,-43
    8000088c:	0fd77713          	andi	a4,a4,253
    80000890:	cb01                	beqz	a4,800008a0 <atol+0x2e>
    sign = *str == '-';
    str++;
  }

  while (*str) {
    80000892:	00054703          	lbu	a4,0(a0)
    80000896:	86aa                	mv	a3,a0
  int sign = 0;
    80000898:	4601                	li	a2,0
  while (*str) {
    8000089a:	ef01                	bnez	a4,800008b2 <atol+0x40>
    8000089c:	4501                	li	a0,0
    res *= 10;
    res += *str++ - '0';
  }

  return sign ? -res : res;
}
    8000089e:	8082                	ret
    sign = *str == '-';
    800008a0:	fd378793          	addi	a5,a5,-45
    800008a4:	0017b613          	seqz	a2,a5
    str++;
    800008a8:	00150693          	addi	a3,a0,1
  while (*str) {
    800008ac:	00154703          	lbu	a4,1(a0)
    800008b0:	c315                	beqz	a4,800008d4 <atol+0x62>
  int sign = 0;
    800008b2:	4501                	li	a0,0
    res *= 10;
    800008b4:	00251793          	slli	a5,a0,0x2
    800008b8:	97aa                	add	a5,a5,a0
    800008ba:	0786                	slli	a5,a5,0x1
    res += *str++ - '0';
    800008bc:	0685                	addi	a3,a3,1
    800008be:	fd07071b          	addiw	a4,a4,-48
    800008c2:	00f70533          	add	a0,a4,a5
  while (*str) {
    800008c6:	0006c703          	lbu	a4,0(a3)
    800008ca:	f76d                	bnez	a4,800008b4 <atol+0x42>
  return sign ? -res : res;
    800008cc:	da69                	beqz	a2,8000089e <atol+0x2c>
    800008ce:	40a00533          	neg	a0,a0
    800008d2:	8082                	ret
  while (*str) {
    800008d4:	4501                	li	a0,0
    800008d6:	bfdd                	j	800008cc <atol+0x5a>

Disassembly of section .tohost:

0000000080001000 <tohost>:
	...

0000000080001040 <fromhost>:
	...
