
sum:     file format elf64-littleriscv


Disassembly of section .text.init:

0000000080000000 <_start>:
#endif

  .section ".text.init"
  .globl _start
_start:
  li  x1, 0
    80000000:	4081                	li	ra,0
  li  x2, 0
    80000002:	4101                	li	sp,0
  li  x3, 0
    80000004:	4181                	li	gp,0
  li  x4, 0
    80000006:	4201                	li	tp,0
  li  x5, 0
    80000008:	4281                	li	t0,0
  li  x6, 0
    8000000a:	4301                	li	t1,0
  li  x7, 0
    8000000c:	4381                	li	t2,0
  li  x8, 0
    8000000e:	4401                	li	s0,0
  li  x9, 0
    80000010:	4481                	li	s1,0
  li  x10,0
    80000012:	4501                	li	a0,0
  li  x11,0
    80000014:	4581                	li	a1,0
  li  x12,0
    80000016:	4601                	li	a2,0
  li  x13,0
    80000018:	4681                	li	a3,0
  li  x14,0
    8000001a:	4701                	li	a4,0
  li  x15,0
    8000001c:	4781                	li	a5,0
  li  x16,0
    8000001e:	4801                	li	a6,0
  li  x17,0
    80000020:	4881                	li	a7,0
  li  x18,0
    80000022:	4901                	li	s2,0
  li  x19,0
    80000024:	4981                	li	s3,0
  li  x20,0
    80000026:	4a01                	li	s4,0
  li  x21,0
    80000028:	4a81                	li	s5,0
  li  x22,0
    8000002a:	4b01                	li	s6,0
  li  x23,0
    8000002c:	4b81                	li	s7,0
  li  x24,0
    8000002e:	4c01                	li	s8,0
  li  x25,0
    80000030:	4c81                	li	s9,0
  li  x26,0
    80000032:	4d01                	li	s10,0
  li  x27,0
    80000034:	4d81                	li	s11,0
  li  x28,0
    80000036:	4e01                	li	t3,0
  li  x29,0
    80000038:	4e81                	li	t4,0
  li  x30,0
    8000003a:	4f01                	li	t5,0
  li  x31,0
    8000003c:	4f81                	li	t6,0

  # enable FPU and accelerator if present
  li t0, MSTATUS_FS | MSTATUS_XS
    8000003e:	62f9                	lui	t0,0x1e
  csrs mstatus, t0
    80000040:	3002a073          	csrs	mstatus,t0

  # make sure XLEN agrees with compilation choice
  li t0, 1
    80000044:	4285                	li	t0,1
  slli t0, t0, 31
    80000046:	02fe                	slli	t0,t0,0x1f
#if __riscv_xlen == 64
  bgez t0, 1f
    80000048:	0002d863          	bgez	t0,80000058 <_start+0x58>
#else
  bltz t0, 1f
#endif
2:
  li a0, 1
    8000004c:	4505                	li	a0,1
  sw a0, tohost, t0
    8000004e:	00001297          	auipc	t0,0x1
    80000052:	faa2a923          	sw	a0,-78(t0) # 80001000 <tohost>
  j 2b
    80000056:	bfdd                	j	8000004c <_start+0x4c>
1:

#ifdef __riscv_flen
  # initialize FPU if we have one
  la t0, 1f
    80000058:	00000297          	auipc	t0,0x0
    8000005c:	09028293          	addi	t0,t0,144 # 800000e8 <_start+0xe8>
  csrw mtvec, t0
    80000060:	30529073          	csrw	mtvec,t0

  fssr    x0
    80000064:	00301073          	fscsr	zero
  fmv.s.x f0, x0
    80000068:	f0000053          	fmv.w.x	ft0,zero
  fmv.s.x f1, x0
    8000006c:	f00000d3          	fmv.w.x	ft1,zero
  fmv.s.x f2, x0
    80000070:	f0000153          	fmv.w.x	ft2,zero
  fmv.s.x f3, x0
    80000074:	f00001d3          	fmv.w.x	ft3,zero
  fmv.s.x f4, x0
    80000078:	f0000253          	fmv.w.x	ft4,zero
  fmv.s.x f5, x0
    8000007c:	f00002d3          	fmv.w.x	ft5,zero
  fmv.s.x f6, x0
    80000080:	f0000353          	fmv.w.x	ft6,zero
  fmv.s.x f7, x0
    80000084:	f00003d3          	fmv.w.x	ft7,zero
  fmv.s.x f8, x0
    80000088:	f0000453          	fmv.w.x	fs0,zero
  fmv.s.x f9, x0
    8000008c:	f00004d3          	fmv.w.x	fs1,zero
  fmv.s.x f10,x0
    80000090:	f0000553          	fmv.w.x	fa0,zero
  fmv.s.x f11,x0
    80000094:	f00005d3          	fmv.w.x	fa1,zero
  fmv.s.x f12,x0
    80000098:	f0000653          	fmv.w.x	fa2,zero
  fmv.s.x f13,x0
    8000009c:	f00006d3          	fmv.w.x	fa3,zero
  fmv.s.x f14,x0
    800000a0:	f0000753          	fmv.w.x	fa4,zero
  fmv.s.x f15,x0
    800000a4:	f00007d3          	fmv.w.x	fa5,zero
  fmv.s.x f16,x0
    800000a8:	f0000853          	fmv.w.x	fa6,zero
  fmv.s.x f17,x0
    800000ac:	f00008d3          	fmv.w.x	fa7,zero
  fmv.s.x f18,x0
    800000b0:	f0000953          	fmv.w.x	fs2,zero
  fmv.s.x f19,x0
    800000b4:	f00009d3          	fmv.w.x	fs3,zero
  fmv.s.x f20,x0
    800000b8:	f0000a53          	fmv.w.x	fs4,zero
  fmv.s.x f21,x0
    800000bc:	f0000ad3          	fmv.w.x	fs5,zero
  fmv.s.x f22,x0
    800000c0:	f0000b53          	fmv.w.x	fs6,zero
  fmv.s.x f23,x0
    800000c4:	f0000bd3          	fmv.w.x	fs7,zero
  fmv.s.x f24,x0
    800000c8:	f0000c53          	fmv.w.x	fs8,zero
  fmv.s.x f25,x0
    800000cc:	f0000cd3          	fmv.w.x	fs9,zero
  fmv.s.x f26,x0
    800000d0:	f0000d53          	fmv.w.x	fs10,zero
  fmv.s.x f27,x0
    800000d4:	f0000dd3          	fmv.w.x	fs11,zero
  fmv.s.x f28,x0
    800000d8:	f0000e53          	fmv.w.x	ft8,zero
  fmv.s.x f29,x0
    800000dc:	f0000ed3          	fmv.w.x	ft9,zero
  fmv.s.x f30,x0
    800000e0:	f0000f53          	fmv.w.x	ft10,zero
  fmv.s.x f31,x0
    800000e4:	f0000fd3          	fmv.w.x	ft11,zero
1:
#endif

  # initialize trap vector
  la t0, trap_entry
    800000e8:	00000297          	auipc	t0,0x0
    800000ec:	03828293          	addi	t0,t0,56 # 80000120 <trap_entry>
  csrw mtvec, t0
    800000f0:	30529073          	csrw	mtvec,t0

  # initialize global pointer
.option push
.option norelax
  la gp, __global_pointer$
    800000f4:	00001197          	auipc	gp,0x1
    800000f8:	75418193          	addi	gp,gp,1876 # 80001848 <__global_pointer$>
.option pop

  la  tp, _end + 63
    800000fc:	85f18213          	addi	tp,gp,-1953 # 800010a7 <_end+0x3f>
  and tp, tp, -64
    80000100:	fc027213          	andi	tp,tp,-64

  # get core id
  csrr a0, mhartid
    80000104:	f1402573          	csrr	a0,mhartid
  # for now, assume only 1 core
  li a1, 1
    80000108:	4585                	li	a1,1
1:bgeu a0, a1, 1b
    8000010a:	00b57063          	bgeu	a0,a1,8000010a <_start+0x10a>

  # give each core 128KB of stack + TLS
#define STKSHIFT 17
  add sp, a0, 1
    8000010e:	00150113          	addi	sp,a0,1
  sll sp, sp, STKSHIFT
    80000112:	0146                	slli	sp,sp,0x11
  add sp, sp, tp
    80000114:	9112                	add	sp,sp,tp
  sll a2, a0, STKSHIFT
    80000116:	01151613          	slli	a2,a0,0x11
  add tp, tp, a2
    8000011a:	9232                	add	tp,tp,a2

  j _init
    8000011c:	6700006f          	j	8000078c <_init>

0000000080000120 <trap_entry>:

  .align 2
trap_entry:
  addi sp, sp, -272
    80000120:	716d                	addi	sp,sp,-272

  SREG x1, 1*REGBYTES(sp)
    80000122:	e406                	sd	ra,8(sp)
  SREG x2, 2*REGBYTES(sp)
    80000124:	e80a                	sd	sp,16(sp)
  SREG x3, 3*REGBYTES(sp)
    80000126:	ec0e                	sd	gp,24(sp)
  SREG x4, 4*REGBYTES(sp)
    80000128:	f012                	sd	tp,32(sp)
  SREG x5, 5*REGBYTES(sp)
    8000012a:	f416                	sd	t0,40(sp)
  SREG x6, 6*REGBYTES(sp)
    8000012c:	f81a                	sd	t1,48(sp)
  SREG x7, 7*REGBYTES(sp)
    8000012e:	fc1e                	sd	t2,56(sp)
  SREG x8, 8*REGBYTES(sp)
    80000130:	e0a2                	sd	s0,64(sp)
  SREG x9, 9*REGBYTES(sp)
    80000132:	e4a6                	sd	s1,72(sp)
  SREG x10, 10*REGBYTES(sp)
    80000134:	e8aa                	sd	a0,80(sp)
  SREG x11, 11*REGBYTES(sp)
    80000136:	ecae                	sd	a1,88(sp)
  SREG x12, 12*REGBYTES(sp)
    80000138:	f0b2                	sd	a2,96(sp)
  SREG x13, 13*REGBYTES(sp)
    8000013a:	f4b6                	sd	a3,104(sp)
  SREG x14, 14*REGBYTES(sp)
    8000013c:	f8ba                	sd	a4,112(sp)
  SREG x15, 15*REGBYTES(sp)
    8000013e:	fcbe                	sd	a5,120(sp)
  SREG x16, 16*REGBYTES(sp)
    80000140:	e142                	sd	a6,128(sp)
  SREG x17, 17*REGBYTES(sp)
    80000142:	e546                	sd	a7,136(sp)
  SREG x18, 18*REGBYTES(sp)
    80000144:	e94a                	sd	s2,144(sp)
  SREG x19, 19*REGBYTES(sp)
    80000146:	ed4e                	sd	s3,152(sp)
  SREG x20, 20*REGBYTES(sp)
    80000148:	f152                	sd	s4,160(sp)
  SREG x21, 21*REGBYTES(sp)
    8000014a:	f556                	sd	s5,168(sp)
  SREG x22, 22*REGBYTES(sp)
    8000014c:	f95a                	sd	s6,176(sp)
  SREG x23, 23*REGBYTES(sp)
    8000014e:	fd5e                	sd	s7,184(sp)
  SREG x24, 24*REGBYTES(sp)
    80000150:	e1e2                	sd	s8,192(sp)
  SREG x25, 25*REGBYTES(sp)
    80000152:	e5e6                	sd	s9,200(sp)
  SREG x26, 26*REGBYTES(sp)
    80000154:	e9ea                	sd	s10,208(sp)
  SREG x27, 27*REGBYTES(sp)
    80000156:	edee                	sd	s11,216(sp)
  SREG x28, 28*REGBYTES(sp)
    80000158:	f1f2                	sd	t3,224(sp)
  SREG x29, 29*REGBYTES(sp)
    8000015a:	f5f6                	sd	t4,232(sp)
  SREG x30, 30*REGBYTES(sp)
    8000015c:	f9fa                	sd	t5,240(sp)
  SREG x31, 31*REGBYTES(sp)
    8000015e:	fdfe                	sd	t6,248(sp)

  csrr a0, mcause
    80000160:	34202573          	csrr	a0,mcause
  csrr a1, mepc
    80000164:	341025f3          	csrr	a1,mepc
  mv a2, sp
    80000168:	860a                	mv	a2,sp
  jal handle_trap
    8000016a:	188000ef          	jal	800002f2 <handle_trap>
  csrw mepc, a0
    8000016e:	34151073          	csrw	mepc,a0

  # Remain in M-mode after eret
  li t0, MSTATUS_MPP
    80000172:	6289                	lui	t0,0x2
    80000174:	8002829b          	addiw	t0,t0,-2048 # 1800 <_start-0x7fffe800>
  csrs mstatus, t0
    80000178:	3002a073          	csrs	mstatus,t0

  LREG x1, 1*REGBYTES(sp)
    8000017c:	60a2                	ld	ra,8(sp)
  LREG x2, 2*REGBYTES(sp)
    8000017e:	6142                	ld	sp,16(sp)
  LREG x3, 3*REGBYTES(sp)
    80000180:	61e2                	ld	gp,24(sp)
  LREG x4, 4*REGBYTES(sp)
    80000182:	7202                	ld	tp,32(sp)
  LREG x5, 5*REGBYTES(sp)
    80000184:	72a2                	ld	t0,40(sp)
  LREG x6, 6*REGBYTES(sp)
    80000186:	7342                	ld	t1,48(sp)
  LREG x7, 7*REGBYTES(sp)
    80000188:	73e2                	ld	t2,56(sp)
  LREG x8, 8*REGBYTES(sp)
    8000018a:	6406                	ld	s0,64(sp)
  LREG x9, 9*REGBYTES(sp)
    8000018c:	64a6                	ld	s1,72(sp)
  LREG x10, 10*REGBYTES(sp)
    8000018e:	6546                	ld	a0,80(sp)
  LREG x11, 11*REGBYTES(sp)
    80000190:	65e6                	ld	a1,88(sp)
  LREG x12, 12*REGBYTES(sp)
    80000192:	7606                	ld	a2,96(sp)
  LREG x13, 13*REGBYTES(sp)
    80000194:	76a6                	ld	a3,104(sp)
  LREG x14, 14*REGBYTES(sp)
    80000196:	7746                	ld	a4,112(sp)
  LREG x15, 15*REGBYTES(sp)
    80000198:	77e6                	ld	a5,120(sp)
  LREG x16, 16*REGBYTES(sp)
    8000019a:	680a                	ld	a6,128(sp)
  LREG x17, 17*REGBYTES(sp)
    8000019c:	68aa                	ld	a7,136(sp)
  LREG x18, 18*REGBYTES(sp)
    8000019e:	694a                	ld	s2,144(sp)
  LREG x19, 19*REGBYTES(sp)
    800001a0:	69ea                	ld	s3,152(sp)
  LREG x20, 20*REGBYTES(sp)
    800001a2:	7a0a                	ld	s4,160(sp)
  LREG x21, 21*REGBYTES(sp)
    800001a4:	7aaa                	ld	s5,168(sp)
  LREG x22, 22*REGBYTES(sp)
    800001a6:	7b4a                	ld	s6,176(sp)
  LREG x23, 23*REGBYTES(sp)
    800001a8:	7bea                	ld	s7,184(sp)
  LREG x24, 24*REGBYTES(sp)
    800001aa:	6c0e                	ld	s8,192(sp)
  LREG x25, 25*REGBYTES(sp)
    800001ac:	6cae                	ld	s9,200(sp)
  LREG x26, 26*REGBYTES(sp)
    800001ae:	6d4e                	ld	s10,208(sp)
  LREG x27, 27*REGBYTES(sp)
    800001b0:	6dee                	ld	s11,216(sp)
  LREG x28, 28*REGBYTES(sp)
    800001b2:	7e0e                	ld	t3,224(sp)
  LREG x29, 29*REGBYTES(sp)
    800001b4:	7eae                	ld	t4,232(sp)
  LREG x30, 30*REGBYTES(sp)
    800001b6:	7f4e                	ld	t5,240(sp)
  LREG x31, 31*REGBYTES(sp)
    800001b8:	7fee                	ld	t6,248(sp)

  addi sp, sp, 272
    800001ba:	6151                	addi	sp,sp,272
  mret
    800001bc:	30200073          	mret
	...

Disassembly of section .text:

00000000800001c2 <sum>:
#include "util.h"   // supports verify

long sum(long N) {
  long result, i;
   result = 0;
   for (i=1; i<=N; i++) {
    800001c2:	00a05b63          	blez	a0,800001d8 <sum+0x16>
    800001c6:	00150713          	addi	a4,a0,1
    800001ca:	4785                	li	a5,1
   result = 0;
    800001cc:	4501                	li	a0,0
       result = result + i;
    800001ce:	953e                	add	a0,a0,a5
   for (i=1; i<=N; i++) {
    800001d0:	0785                	addi	a5,a5,1
    800001d2:	fee79ee3          	bne	a5,a4,800001ce <sum+0xc>
    800001d6:	8082                	ret
   result = 0;
    800001d8:	4501                	li	a0,0
   }
   return result;
}
    800001da:	8082                	ret

00000000800001dc <main>:

int main(void) {
    800001dc:	1101                	addi	sp,sp,-32
    800001de:	ec06                	sd	ra,24(sp)
    800001e0:	e822                	sd	s0,16(sp)
    int s[1], expected[1];
    setStats(1);
    800001e2:	4505                	li	a0,1
    800001e4:	0b6000ef          	jal	8000029a <setStats>
    s[0] = sum(4);
    800001e8:	4511                	li	a0,4
    800001ea:	fd9ff0ef          	jal	800001c2 <sum>
    800001ee:	0005041b          	sext.w	s0,a0
    800001f2:	c422                	sw	s0,8(sp)
    setStats(0);
    800001f4:	4501                	li	a0,0
    800001f6:	0a4000ef          	jal	8000029a <setStats>
    printf("s = %d\n", s[0]);
    800001fa:	85a2                	mv	a1,s0
    800001fc:	00000517          	auipc	a0,0x0
    80000200:	6dc50513          	addi	a0,a0,1756 # 800008d8 <atol+0x66>
    80000204:	51e000ef          	jal	80000722 <printf>
    int t0 = test[i], t1 = test[i+1];
    int v0 = verify[i], v1 = verify[i+1];
    if (t0 != v0) return i+1;
    if (t1 != v1) return i+2;
  }
  if (n % 2 != 0 && test[n-1] != verify[n-1])
    80000208:	4522                	lw	a0,8(sp)
    8000020a:	1559                	addi	a0,a0,-10
    expected[0] = 10;
    return verify(1, s, expected); // 0 means success
    8000020c:	00a03533          	snez	a0,a0
    80000210:	60e2                	ld	ra,24(sp)
    80000212:	6442                	ld	s0,16(sp)
    80000214:	6105                	addi	sp,sp,32
    80000216:	8082                	ret

0000000080000218 <sprintf_putch.0>:
  va_start(ap, fmt);

  void sprintf_putch(int ch, void** data)
  {
    char** pstr = (char**)data;
    **pstr = ch;
    80000218:	619c                	ld	a5,0(a1)
    8000021a:	00a78023          	sb	a0,0(a5)
    (*pstr)++;
    8000021e:	619c                	ld	a5,0(a1)
    80000220:	0785                	addi	a5,a5,1
    80000222:	e19c                	sd	a5,0(a1)
  }
    80000224:	8082                	ret

0000000080000226 <uartInit>:
	*UART_LCR = 0b0000011; // 8-bit characters, 1 stop bit, no parity
    80000226:	100007b7          	lui	a5,0x10000
    8000022a:	470d                	li	a4,3
    8000022c:	00e781a3          	sb	a4,3(a5) # 10000003 <_start-0x6ffffffd>
}
    80000230:	8082                	ret

0000000080000232 <uartSend>:
	while (!(*UART_LSR & (1<<5))); // wait for THRE (trans hold reg empty)
    80000232:	10000737          	lui	a4,0x10000
    80000236:	0715                	addi	a4,a4,5 # 10000005 <_start-0x6ffffffb>
    80000238:	00074783          	lbu	a5,0(a4)
    8000023c:	0207f793          	andi	a5,a5,32
    80000240:	dfe5                	beqz	a5,80000238 <uartSend+0x6>
	*UART_THR = c;
    80000242:	100007b7          	lui	a5,0x10000
    80000246:	00a78023          	sb	a0,0(a5) # 10000000 <_start-0x70000000>
}
    8000024a:	8082                	ret

000000008000024c <putchar>:
{
    8000024c:	1141                	addi	sp,sp,-16
    8000024e:	e406                	sd	ra,8(sp)
  uartSend(ch);
    80000250:	0ff57513          	zext.b	a0,a0
    80000254:	fdfff0ef          	jal	80000232 <uartSend>
}
    80000258:	4501                	li	a0,0
    8000025a:	60a2                	ld	ra,8(sp)
    8000025c:	0141                	addi	sp,sp,16
    8000025e:	8082                	ret

0000000080000260 <uartReceive>:
	while (!(*UART_LSR & (1<<0))); // wait for DR (Data Ready)
    80000260:	10000737          	lui	a4,0x10000
    80000264:	0715                	addi	a4,a4,5 # 10000005 <_start-0x6ffffffb>
    80000266:	00074783          	lbu	a5,0(a4)
    8000026a:	8b85                	andi	a5,a5,1
    8000026c:	dfed                	beqz	a5,80000266 <uartReceive+0x6>
	return *UART_RBR;
    8000026e:	100007b7          	lui	a5,0x10000
    80000272:	0007c503          	lbu	a0,0(a5) # 10000000 <_start-0x70000000>
}
    80000276:	8082                	ret

0000000080000278 <uartPutStr>:
char uartPutStr(const char *str) {
    80000278:	1141                	addi	sp,sp,-16
    8000027a:	e406                	sd	ra,8(sp)
    8000027c:	e022                	sd	s0,0(sp)
    8000027e:	842a                	mv	s0,a0
    while (*str) {
    80000280:	00054503          	lbu	a0,0(a0)
    80000284:	c519                	beqz	a0,80000292 <uartPutStr+0x1a>
        uartSend(*str++);
    80000286:	0405                	addi	s0,s0,1
    80000288:	fabff0ef          	jal	80000232 <uartSend>
    while (*str) {
    8000028c:	00044503          	lbu	a0,0(s0)
    80000290:	f97d                	bnez	a0,80000286 <uartPutStr+0xe>
}
    80000292:	60a2                	ld	ra,8(sp)
    80000294:	6402                	ld	s0,0(sp)
    80000296:	0141                	addi	sp,sp,16
    80000298:	8082                	ret

000000008000029a <setStats>:
  READ_CTR(mcycle);
    8000029a:	b00027f3          	csrr	a5,mcycle
    8000029e:	ed01                	bnez	a0,800002b6 <setStats+0x1c>
    800002a0:	00001717          	auipc	a4,0x1
    800002a4:	da870713          	addi	a4,a4,-600 # 80001048 <counters>
    800002a8:	6314                	ld	a3,0(a4)
    800002aa:	8f95                	sub	a5,a5,a3
    800002ac:	00000697          	auipc	a3,0x0
    800002b0:	63468693          	addi	a3,a3,1588 # 800008e0 <atol+0x6e>
    800002b4:	eb14                	sd	a3,16(a4)
    800002b6:	00001717          	auipc	a4,0x1
    800002ba:	d8f73923          	sd	a5,-622(a4) # 80001048 <counters>
  READ_CTR(minstret);
    800002be:	b02027f3          	csrr	a5,minstret
    800002c2:	ed01                	bnez	a0,800002da <setStats+0x40>
    800002c4:	00001717          	auipc	a4,0x1
    800002c8:	d8470713          	addi	a4,a4,-636 # 80001048 <counters>
    800002cc:	6714                	ld	a3,8(a4)
    800002ce:	8f95                	sub	a5,a5,a3
    800002d0:	00000697          	auipc	a3,0x0
    800002d4:	62068693          	addi	a3,a3,1568 # 800008f0 <atol+0x7e>
    800002d8:	ef14                	sd	a3,24(a4)
    800002da:	80f1b423          	sd	a5,-2040(gp) # 80001050 <counters+0x8>
}
    800002de:	8082                	ret

00000000800002e0 <tohost_exit>:
  tohost = (code << 1) | 1;
    800002e0:	00151793          	slli	a5,a0,0x1
    800002e4:	0017e793          	ori	a5,a5,1
    800002e8:	00001717          	auipc	a4,0x1
    800002ec:	d0f73c23          	sd	a5,-744(a4) # 80001000 <tohost>
  while (1);
    800002f0:	a001                	j	800002f0 <tohost_exit+0x10>

00000000800002f2 <handle_trap>:
{
    800002f2:	1141                	addi	sp,sp,-16
    800002f4:	e406                	sd	ra,8(sp)
  tohost_exit(1337);
    800002f6:	53900513          	li	a0,1337
    800002fa:	fe7ff0ef          	jal	800002e0 <tohost_exit>

00000000800002fe <exit>:
{
    800002fe:	1141                	addi	sp,sp,-16
    80000300:	e406                	sd	ra,8(sp)
  tohost_exit(code);
    80000302:	fdfff0ef          	jal	800002e0 <tohost_exit>

0000000080000306 <abort>:
{
    80000306:	1141                	addi	sp,sp,-16
    80000308:	e406                	sd	ra,8(sp)
  tohost_exit(code);
    8000030a:	08600513          	li	a0,134
    8000030e:	fd3ff0ef          	jal	800002e0 <tohost_exit>

0000000080000312 <printstr>:
{
    80000312:	1141                	addi	sp,sp,-16
    80000314:	e406                	sd	ra,8(sp)
  uartPutStr(s);
    80000316:	f63ff0ef          	jal	80000278 <uartPutStr>
}
    8000031a:	60a2                	ld	ra,8(sp)
    8000031c:	0141                	addi	sp,sp,16
    8000031e:	8082                	ret

0000000080000320 <puts>:
{
    80000320:	1141                	addi	sp,sp,-16
    80000322:	e406                	sd	ra,8(sp)
  uartPutStr(s);
    80000324:	f55ff0ef          	jal	80000278 <uartPutStr>
}
    80000328:	4501                	li	a0,0
    8000032a:	60a2                	ld	ra,8(sp)
    8000032c:	0141                	addi	sp,sp,16
    8000032e:	8082                	ret

0000000080000330 <thread_entry>:
  while (cid != 0);
    80000330:	e111                	bnez	a0,80000334 <thread_entry+0x4>
}
    80000332:	8082                	ret
  while (cid != 0);
    80000334:	a001                	j	80000334 <thread_entry+0x4>
{
    80000336:	1141                	addi	sp,sp,-16
    80000338:	e406                	sd	ra,8(sp)
  uartPutStr(s);
    8000033a:	00000517          	auipc	a0,0x0
    8000033e:	5c650513          	addi	a0,a0,1478 # 80000900 <atol+0x8e>
    80000342:	f37ff0ef          	jal	80000278 <uartPutStr>
}
    80000346:	557d                	li	a0,-1
    80000348:	60a2                	ld	ra,8(sp)
    8000034a:	0141                	addi	sp,sp,16
    8000034c:	8082                	ret

000000008000034e <printhex>:
{
    8000034e:	7179                	addi	sp,sp,-48
    80000350:	f406                	sd	ra,40(sp)
  for (i = 0; i < 16; i++)
    80000352:	01710693          	addi	a3,sp,23
    80000356:	00810893          	addi	a7,sp,8
    str[15-i] = (x & 0xF) + ((x & 0xF) < 10 ? '0' : 'a'-10);
    8000035a:	4825                	li	a6,9
    8000035c:	05700593          	li	a1,87
    80000360:	03000313          	li	t1,48
    80000364:	a811                	j	80000378 <printhex+0x2a>
    80000366:	9fb1                	addw	a5,a5,a2
    80000368:	00f68023          	sb	a5,0(a3)
    x >>= 4;
    8000036c:	8111                	srli	a0,a0,0x4
  for (i = 0; i < 16; i++)
    8000036e:	fff68793          	addi	a5,a3,-1
    80000372:	01168a63          	beq	a3,a7,80000386 <printhex+0x38>
    80000376:	86be                	mv	a3,a5
    str[15-i] = (x & 0xF) + ((x & 0xF) < 10 ? '0' : 'a'-10);
    80000378:	00f57793          	andi	a5,a0,15
    8000037c:	862e                	mv	a2,a1
    8000037e:	fef864e3          	bltu	a6,a5,80000366 <printhex+0x18>
    80000382:	861a                	mv	a2,t1
    80000384:	b7cd                	j	80000366 <printhex+0x18>
  str[16] = 0;
    80000386:	00010c23          	sb	zero,24(sp)
  uartPutStr(s);
    8000038a:	0028                	addi	a0,sp,8
    8000038c:	eedff0ef          	jal	80000278 <uartPutStr>
}
    80000390:	70a2                	ld	ra,40(sp)
    80000392:	6145                	addi	sp,sp,48
    80000394:	8082                	ret

0000000080000396 <memcpy>:
  return str - str0;
}

void* memcpy(void* dest, const void* src, size_t len)
{
  if ((((uintptr_t)dest | (uintptr_t)src | len) & (sizeof(uintptr_t)-1)) == 0) {
    80000396:	00c5e7b3          	or	a5,a1,a2
    8000039a:	8fc9                	or	a5,a5,a0
    8000039c:	8b9d                	andi	a5,a5,7
    8000039e:	c38d                	beqz	a5,800003c0 <memcpy+0x2a>
    while (d < (uintptr_t*)(dest + len))
      *d++ = *s++;
  } else {
    const char* s = src;
    char *d = dest;
    while (d < (char*)(dest + len))
    800003a0:	00c50733          	add	a4,a0,a2
    800003a4:	962e                	add	a2,a2,a1
    char *d = dest;
    800003a6:	87aa                	mv	a5,a0
    while (d < (char*)(dest + len))
    800003a8:	00e57b63          	bgeu	a0,a4,800003be <memcpy+0x28>
      *d++ = *s++;
    800003ac:	0585                	addi	a1,a1,1
    800003ae:	0785                	addi	a5,a5,1
    800003b0:	fff5c703          	lbu	a4,-1(a1)
    800003b4:	fee78fa3          	sb	a4,-1(a5)
    while (d < (char*)(dest + len))
    800003b8:	feb61ae3          	bne	a2,a1,800003ac <memcpy+0x16>
  }
  return dest;
}
    800003bc:	8082                	ret
    800003be:	8082                	ret
    while (d < (uintptr_t*)(dest + len))
    800003c0:	962a                	add	a2,a2,a0
    800003c2:	fec57de3          	bgeu	a0,a2,800003bc <memcpy+0x26>
    uintptr_t *d = dest;
    800003c6:	87aa                	mv	a5,a0
      *d++ = *s++;
    800003c8:	05a1                	addi	a1,a1,8
    800003ca:	07a1                	addi	a5,a5,8
    800003cc:	ff85b703          	ld	a4,-8(a1)
    800003d0:	fee7bc23          	sd	a4,-8(a5)
    while (d < (uintptr_t*)(dest + len))
    800003d4:	fec7eae3          	bltu	a5,a2,800003c8 <memcpy+0x32>
    800003d8:	8082                	ret

00000000800003da <memset>:

void* memset(void* dest, int byte, size_t len)
{
  if ((((uintptr_t)dest | len) & (sizeof(uintptr_t)-1)) == 0) {
    800003da:	00c567b3          	or	a5,a0,a2
    800003de:	8b9d                	andi	a5,a5,7
    800003e0:	cf81                	beqz	a5,800003f8 <memset+0x1e>
    uintptr_t *d = dest;
    while (d < (uintptr_t*)(dest + len))
      *d++ = word;
  } else {
    char *d = dest;
    while (d < (char*)(dest + len))
    800003e2:	962a                	add	a2,a2,a0
    char *d = dest;
    800003e4:	87aa                	mv	a5,a0
    while (d < (char*)(dest + len))
    800003e6:	00c57863          	bgeu	a0,a2,800003f6 <memset+0x1c>
      *d++ = byte;
    800003ea:	0785                	addi	a5,a5,1
    800003ec:	feb78fa3          	sb	a1,-1(a5)
    while (d < (char*)(dest + len))
    800003f0:	fec79de3          	bne	a5,a2,800003ea <memset+0x10>
  }
  return dest;
}
    800003f4:	8082                	ret
    800003f6:	8082                	ret
    uintptr_t word = byte & 0xFF;
    800003f8:	0ff5f593          	zext.b	a1,a1
    800003fc:	010107b7          	lui	a5,0x1010
    80000400:	10178793          	addi	a5,a5,257 # 1010101 <_start-0x7efefeff>
    80000404:	02079713          	slli	a4,a5,0x20
    80000408:	97ba                	add	a5,a5,a4
    8000040a:	02f585b3          	mul	a1,a1,a5
    while (d < (uintptr_t*)(dest + len))
    8000040e:	962a                	add	a2,a2,a0
    80000410:	fec572e3          	bgeu	a0,a2,800003f4 <memset+0x1a>
    uintptr_t *d = dest;
    80000414:	87aa                	mv	a5,a0
      *d++ = word;
    80000416:	07a1                	addi	a5,a5,8
    80000418:	feb7bc23          	sd	a1,-8(a5)
    while (d < (uintptr_t*)(dest + len))
    8000041c:	fec7ede3          	bltu	a5,a2,80000416 <memset+0x3c>
    80000420:	8082                	ret

0000000080000422 <strlen>:

size_t strlen(const char *s)
{
  const char *p = s;
  while (*p)
    80000422:	00054783          	lbu	a5,0(a0)
    80000426:	cb89                	beqz	a5,80000438 <strlen+0x16>
  const char *p = s;
    80000428:	87aa                	mv	a5,a0
    p++;
    8000042a:	0785                	addi	a5,a5,1
  while (*p)
    8000042c:	0007c703          	lbu	a4,0(a5)
    80000430:	ff6d                	bnez	a4,8000042a <strlen+0x8>
  return p - s;
}
    80000432:	40a78533          	sub	a0,a5,a0
    80000436:	8082                	ret
  const char *p = s;
    80000438:	87aa                	mv	a5,a0
    8000043a:	bfe5                	j	80000432 <strlen+0x10>

000000008000043c <strnlen>:

size_t strnlen(const char *s, size_t n)
{
  const char *p = s;
  while (n-- && *p)
    8000043c:	cd89                	beqz	a1,80000456 <strnlen+0x1a>
    8000043e:	95aa                	add	a1,a1,a0
  const char *p = s;
    80000440:	87aa                	mv	a5,a0
  while (n-- && *p)
    80000442:	0007c703          	lbu	a4,0(a5)
    80000446:	c709                	beqz	a4,80000450 <strnlen+0x14>
    p++;
    80000448:	0785                	addi	a5,a5,1
  while (n-- && *p)
    8000044a:	feb79ce3          	bne	a5,a1,80000442 <strnlen+0x6>
    8000044e:	87ae                	mv	a5,a1
  return p - s;
}
    80000450:	40a78533          	sub	a0,a5,a0
    80000454:	8082                	ret
  const char *p = s;
    80000456:	87aa                	mv	a5,a0
    80000458:	bfe5                	j	80000450 <strnlen+0x14>

000000008000045a <vprintfmt>:
{
    8000045a:	7149                	addi	sp,sp,-368
    8000045c:	f686                	sd	ra,360(sp)
    8000045e:	f2a2                	sd	s0,352(sp)
    80000460:	eea6                	sd	s1,344(sp)
    80000462:	eaca                	sd	s2,336(sp)
    80000464:	e6ce                	sd	s3,328(sp)
    80000466:	e2d2                	sd	s4,320(sp)
    80000468:	fe56                	sd	s5,312(sp)
    8000046a:	fa5a                	sd	s6,304(sp)
    8000046c:	f65e                	sd	s7,296(sp)
    8000046e:	f262                	sd	s8,288(sp)
    80000470:	ea6a                	sd	s10,272(sp)
    80000472:	e66e                	sd	s11,264(sp)
    80000474:	892a                	mv	s2,a0
    80000476:	84ae                	mv	s1,a1
    80000478:	8432                	mv	s0,a2
    8000047a:	8c36                	mv	s8,a3
    while ((ch = *(unsigned char *) fmt) != '%') {
    8000047c:	02500a13          	li	s4,37
    precision = -1;
    80000480:	5dfd                	li	s11,-1
    switch (ch = *(unsigned char *) fmt++) {
    80000482:	00000d17          	auipc	s10,0x0
    80000486:	4aad0d13          	addi	s10,s10,1194 # 8000092c <atol+0xba>
    while ((ch = *(unsigned char *) fmt) != '%') {
    8000048a:	00044503          	lbu	a0,0(s0)
    8000048e:	01450b63          	beq	a0,s4,800004a4 <vprintfmt+0x4a>
      if (ch == '\0')
    80000492:	26050a63          	beqz	a0,80000706 <vprintfmt+0x2ac>
      fmt++;
    80000496:	0405                	addi	s0,s0,1
      putch(ch, putdat);
    80000498:	85a6                	mv	a1,s1
    8000049a:	9902                	jalr	s2
    while ((ch = *(unsigned char *) fmt) != '%') {
    8000049c:	00044503          	lbu	a0,0(s0)
    800004a0:	ff4519e3          	bne	a0,s4,80000492 <vprintfmt+0x38>
    fmt++;
    800004a4:	00140a93          	addi	s5,s0,1
    800004a8:	8756                	mv	a4,s5
    padc = ' ';
    800004aa:	02000b93          	li	s7,32
    precision = -1;
    800004ae:	89ee                	mv	s3,s11
    width = -1;
    800004b0:	8b6e                	mv	s6,s11
    lflag = 0;
    800004b2:	4601                	li	a2,0
    switch (ch = *(unsigned char *) fmt++) {
    800004b4:	05500693          	li	a3,85
    800004b8:	00170413          	addi	s0,a4,1
    800004bc:	00074583          	lbu	a1,0(a4)
    800004c0:	fdd5879b          	addiw	a5,a1,-35
    800004c4:	0ff7f513          	zext.b	a0,a5
    800004c8:	20a6ea63          	bltu	a3,a0,800006dc <vprintfmt+0x282>
    800004cc:	00251793          	slli	a5,a0,0x2
    800004d0:	97ea                	add	a5,a5,s10
    800004d2:	439c                	lw	a5,0(a5)
    800004d4:	97ea                	add	a5,a5,s10
    800004d6:	8782                	jr	a5
      if ((p = va_arg(ap, char *)) == NULL)
    800004d8:	8c56                	mv	s8,s5
    800004da:	bf45                	j	8000048a <vprintfmt+0x30>
    switch (ch = *(unsigned char *) fmt++) {
    800004dc:	8bae                	mv	s7,a1
    800004de:	8722                	mv	a4,s0
    800004e0:	bfe1                	j	800004b8 <vprintfmt+0x5e>
    800004e2:	ee66                	sd	s9,280(sp)
      base = 8;
    800004e4:	45a1                	li	a1,8
    800004e6:	aa91                	j	8000063a <vprintfmt+0x1e0>
        precision = precision * 10 + ch - '0';
    800004e8:	fd05899b          	addiw	s3,a1,-48
        ch = *fmt;
    800004ec:	00174783          	lbu	a5,1(a4)
    800004f0:	0007871b          	sext.w	a4,a5
        if (ch < '0' || ch > '9')
    800004f4:	fd07879b          	addiw	a5,a5,-48
    800004f8:	45a5                	li	a1,9
    800004fa:	04f5ea63          	bltu	a1,a5,8000054e <vprintfmt+0xf4>
      for (precision = 0; ; ++fmt) {
    800004fe:	0405                	addi	s0,s0,1
        precision = precision * 10 + ch - '0';
    80000500:	0029979b          	slliw	a5,s3,0x2
    80000504:	013787bb          	addw	a5,a5,s3
    80000508:	0017979b          	slliw	a5,a5,0x1
    8000050c:	9fb9                	addw	a5,a5,a4
    8000050e:	fd07899b          	addiw	s3,a5,-48
        ch = *fmt;
    80000512:	00044783          	lbu	a5,0(s0)
    80000516:	0007871b          	sext.w	a4,a5
        if (ch < '0' || ch > '9')
    8000051a:	fd07879b          	addiw	a5,a5,-48
    8000051e:	fef5f0e3          	bgeu	a1,a5,800004fe <vprintfmt+0xa4>
    80000522:	8722                	mv	a4,s0
    80000524:	a029                	j	8000052e <vprintfmt+0xd4>
      precision = va_arg(ap, int);
    80000526:	000c2983          	lw	s3,0(s8)
    8000052a:	0c21                	addi	s8,s8,8
    switch (ch = *(unsigned char *) fmt++) {
    8000052c:	8722                	mv	a4,s0
      if (width < 0)
    8000052e:	f80b55e3          	bgez	s6,800004b8 <vprintfmt+0x5e>
        width = precision, precision = -1;
    80000532:	8b4e                	mv	s6,s3
    80000534:	59fd                	li	s3,-1
    80000536:	b749                	j	800004b8 <vprintfmt+0x5e>
      if (width < 0)
    80000538:	87da                	mv	a5,s6
    8000053a:	000b4663          	bltz	s6,80000546 <vprintfmt+0xec>
    8000053e:	00078b1b          	sext.w	s6,a5
    switch (ch = *(unsigned char *) fmt++) {
    80000542:	8722                	mv	a4,s0
      goto reswitch;
    80000544:	bf95                	j	800004b8 <vprintfmt+0x5e>
      if (width < 0)
    80000546:	4781                	li	a5,0
    80000548:	bfdd                	j	8000053e <vprintfmt+0xe4>
    switch (ch = *(unsigned char *) fmt++) {
    8000054a:	8722                	mv	a4,s0
      goto reswitch;
    8000054c:	b7b5                	j	800004b8 <vprintfmt+0x5e>
    switch (ch = *(unsigned char *) fmt++) {
    8000054e:	8722                	mv	a4,s0
    80000550:	bff9                	j	8000052e <vprintfmt+0xd4>
      lflag++;
    80000552:	2605                	addiw	a2,a2,1
    switch (ch = *(unsigned char *) fmt++) {
    80000554:	8722                	mv	a4,s0
      goto reswitch;
    80000556:	b78d                	j	800004b8 <vprintfmt+0x5e>
      putch(va_arg(ap, int), putdat);
    80000558:	008c0993          	addi	s3,s8,8
    8000055c:	85a6                	mv	a1,s1
    8000055e:	000c2503          	lw	a0,0(s8)
    80000562:	9902                	jalr	s2
    80000564:	8c4e                	mv	s8,s3
      break;
    80000566:	b715                	j	8000048a <vprintfmt+0x30>
      if ((p = va_arg(ap, char *)) == NULL)
    80000568:	008c0a93          	addi	s5,s8,8
    8000056c:	000c3c03          	ld	s8,0(s8)
    80000570:	180c0263          	beqz	s8,800006f4 <vprintfmt+0x29a>
      if (width > 0 && padc != '-')
    80000574:	17605a63          	blez	s6,800006e8 <vprintfmt+0x28e>
    80000578:	02d00793          	li	a5,45
    8000057c:	00fb9663          	bne	s7,a5,80000588 <vprintfmt+0x12e>
      for (; (ch = *p) != '\0' && (precision < 0 || --precision >= 0); width--) {
    80000580:	000c4503          	lbu	a0,0(s8)
    80000584:	ed0d                	bnez	a0,800005be <vprintfmt+0x164>
    80000586:	a099                	j	800005cc <vprintfmt+0x172>
        for (width -= strnlen(p, precision); width > 0; width--)
    80000588:	85ce                	mv	a1,s3
    8000058a:	8562                	mv	a0,s8
    8000058c:	eb1ff0ef          	jal	8000043c <strnlen>
    80000590:	40ab0b3b          	subw	s6,s6,a0
    80000594:	15605a63          	blez	s6,800006e8 <vprintfmt+0x28e>
          putch(padc, putdat);
    80000598:	2b81                	sext.w	s7,s7
    8000059a:	85a6                	mv	a1,s1
    8000059c:	855e                	mv	a0,s7
    8000059e:	9902                	jalr	s2
        for (width -= strnlen(p, precision); width > 0; width--)
    800005a0:	3b7d                	addiw	s6,s6,-1
    800005a2:	fe0b1ce3          	bnez	s6,8000059a <vprintfmt+0x140>
      for (; (ch = *p) != '\0' && (precision < 0 || --precision >= 0); width--) {
    800005a6:	000c4503          	lbu	a0,0(s8)
    800005aa:	e911                	bnez	a0,800005be <vprintfmt+0x164>
    800005ac:	8b2a                	mv	s6,a0
    800005ae:	a829                	j	800005c8 <vprintfmt+0x16e>
        putch(ch, putdat);
    800005b0:	85a6                	mv	a1,s1
    800005b2:	9902                	jalr	s2
        p++;
    800005b4:	0c05                	addi	s8,s8,1
      for (; (ch = *p) != '\0' && (precision < 0 || --precision >= 0); width--) {
    800005b6:	3b7d                	addiw	s6,s6,-1
    800005b8:	000c4503          	lbu	a0,0(s8)
    800005bc:	c511                	beqz	a0,800005c8 <vprintfmt+0x16e>
    800005be:	fe09c9e3          	bltz	s3,800005b0 <vprintfmt+0x156>
    800005c2:	39fd                	addiw	s3,s3,-1
    800005c4:	fe09d6e3          	bgez	s3,800005b0 <vprintfmt+0x156>
      for (; width > 0; width--)
    800005c8:	f16058e3          	blez	s6,800004d8 <vprintfmt+0x7e>
        putch(' ', putdat);
    800005cc:	02000993          	li	s3,32
    800005d0:	85a6                	mv	a1,s1
    800005d2:	854e                	mv	a0,s3
    800005d4:	9902                	jalr	s2
      for (; width > 0; width--)
    800005d6:	3b7d                	addiw	s6,s6,-1
    800005d8:	fe0b1ce3          	bnez	s6,800005d0 <vprintfmt+0x176>
      if ((p = va_arg(ap, char *)) == NULL)
    800005dc:	8c56                	mv	s8,s5
    800005de:	b575                	j	8000048a <vprintfmt+0x30>
    800005e0:	ee66                	sd	s9,280(sp)
  if (lflag >= 2)
    800005e2:	4785                	li	a5,1
    800005e4:	00c7c763          	blt	a5,a2,800005f2 <vprintfmt+0x198>
  else if (lflag)
    800005e8:	ce09                	beqz	a2,80000602 <vprintfmt+0x1a8>
    return va_arg(*ap, long);
    800005ea:	000c3983          	ld	s3,0(s8)
    800005ee:	0c21                	addi	s8,s8,8
    800005f0:	a021                	j	800005f8 <vprintfmt+0x19e>
    return va_arg(*ap, long long);
    800005f2:	000c3983          	ld	s3,0(s8)
    800005f6:	0c21                	addi	s8,s8,8
      if ((long long) num < 0) {
    800005f8:	0009c963          	bltz	s3,8000060a <vprintfmt+0x1b0>
      num = getint(&ap, lflag);
    800005fc:	87ce                	mv	a5,s3
      base = 10;
    800005fe:	45a9                	li	a1,10
    80000600:	a099                	j	80000646 <vprintfmt+0x1ec>
    return va_arg(*ap, int);
    80000602:	000c2983          	lw	s3,0(s8)
    80000606:	0c21                	addi	s8,s8,8
    80000608:	bfc5                	j	800005f8 <vprintfmt+0x19e>
        putch('-', putdat);
    8000060a:	85a6                	mv	a1,s1
    8000060c:	02d00513          	li	a0,45
    80000610:	9902                	jalr	s2
        num = -(long long) num;
    80000612:	413007b3          	neg	a5,s3
      base = 10;
    80000616:	45a9                	li	a1,10
    80000618:	a03d                	j	80000646 <vprintfmt+0x1ec>
    8000061a:	ee66                	sd	s9,280(sp)
      putch('0', putdat);
    8000061c:	85a6                	mv	a1,s1
    8000061e:	03000513          	li	a0,48
    80000622:	9902                	jalr	s2
      putch('x', putdat);
    80000624:	85a6                	mv	a1,s1
    80000626:	07800513          	li	a0,120
    8000062a:	9902                	jalr	s2
      base = 16;
    8000062c:	45c1                	li	a1,16
    return va_arg(*ap, unsigned long);
    8000062e:	000c3783          	ld	a5,0(s8)
    80000632:	0c21                	addi	s8,s8,8
    80000634:	a809                	j	80000646 <vprintfmt+0x1ec>
    80000636:	ee66                	sd	s9,280(sp)
      base = 16;
    80000638:	45c1                	li	a1,16
  if (lflag >= 2)
    8000063a:	4785                	li	a5,1
    8000063c:	06c7d663          	bge	a5,a2,800006a8 <vprintfmt+0x24e>
    return va_arg(*ap, unsigned long long);
    80000640:	000c3783          	ld	a5,0(s8)
    80000644:	0c21                	addi	s8,s8,8
      printnum(putch, putdat, num, base, width, padc);
    80000646:	2b81                	sext.w	s7,s7
    digs[pos++] = num % base;
    80000648:	02059693          	slli	a3,a1,0x20
    8000064c:	9281                	srli	a3,a3,0x20
    8000064e:	02b7f733          	remu	a4,a5,a1
    80000652:	c03a                	sw	a4,0(sp)
    if (num < base)
    80000654:	0058                	addi	a4,sp,4
    digs[pos++] = num % base;
    80000656:	4985                	li	s3,1
    if (num < base)
    80000658:	00b7eb63          	bltu	a5,a1,8000066e <vprintfmt+0x214>
    num /= base;
    8000065c:	02d7d7b3          	divu	a5,a5,a3
    digs[pos++] = num % base;
    80000660:	2985                	addiw	s3,s3,1
    80000662:	02d7f633          	remu	a2,a5,a3
    80000666:	c310                	sw	a2,0(a4)
    if (num < base)
    80000668:	0711                	addi	a4,a4,4
    8000066a:	fed7f9e3          	bgeu	a5,a3,8000065c <vprintfmt+0x202>
  while (width-- > pos)
    8000066e:	fffb0a9b          	addiw	s5,s6,-1
    80000672:	fff98c9b          	addiw	s9,s3,-1
    80000676:	0169d863          	bge	s3,s6,80000686 <vprintfmt+0x22c>
    putch(padc, putdat);
    8000067a:	85a6                	mv	a1,s1
    8000067c:	855e                	mv	a0,s7
    8000067e:	9902                	jalr	s2
  while (width-- > pos)
    80000680:	3afd                	addiw	s5,s5,-1
    80000682:	ff9a9ce3          	bne	s5,s9,8000067a <vprintfmt+0x220>
  while (pos-- > 0)
    80000686:	00299a93          	slli	s5,s3,0x2
    8000068a:	100a8793          	addi	a5,s5,256
    8000068e:	00278ab3          	add	s5,a5,sp
    80000692:	efca8a93          	addi	s5,s5,-260
    putch(digs[pos] + (digs[pos] >= 10 ? 'a' - 10 : '0'), putdat);
    80000696:	4ba5                	li	s7,9
    80000698:	03000b13          	li	s6,48
    8000069c:	05700c93          	li	s9,87
    800006a0:	a005                	j	800006c0 <vprintfmt+0x266>
    800006a2:	ee66                	sd	s9,280(sp)
    switch (ch = *(unsigned char *) fmt++) {
    800006a4:	45a9                	li	a1,10
    800006a6:	bf51                	j	8000063a <vprintfmt+0x1e0>
  else if (lflag)
    800006a8:	f259                	bnez	a2,8000062e <vprintfmt+0x1d4>
    return va_arg(*ap, unsigned int);
    800006aa:	000c6783          	lwu	a5,0(s8)
    800006ae:	0c21                	addi	s8,s8,8
    800006b0:	bf59                	j	80000646 <vprintfmt+0x1ec>
    putch(digs[pos] + (digs[pos] >= 10 ? 'a' - 10 : '0'), putdat);
    800006b2:	85a6                	mv	a1,s1
    800006b4:	9d3d                	addw	a0,a0,a5
    800006b6:	9902                	jalr	s2
  while (pos-- > 0)
    800006b8:	1af1                	addi	s5,s5,-4
    800006ba:	39fd                	addiw	s3,s3,-1
    800006bc:	01305963          	blez	s3,800006ce <vprintfmt+0x274>
    putch(digs[pos] + (digs[pos] >= 10 ? 'a' - 10 : '0'), putdat);
    800006c0:	000aa783          	lw	a5,0(s5)
    800006c4:	855a                	mv	a0,s6
    800006c6:	fefbf6e3          	bgeu	s7,a5,800006b2 <vprintfmt+0x258>
    800006ca:	8566                	mv	a0,s9
    800006cc:	b7dd                	j	800006b2 <vprintfmt+0x258>
    800006ce:	6cf2                	ld	s9,280(sp)
    800006d0:	bb6d                	j	8000048a <vprintfmt+0x30>
      putch(ch, putdat);
    800006d2:	85a6                	mv	a1,s1
    800006d4:	02500513          	li	a0,37
    800006d8:	9902                	jalr	s2
      break;
    800006da:	bb45                	j	8000048a <vprintfmt+0x30>
      putch('%', putdat);
    800006dc:	85a6                	mv	a1,s1
    800006de:	02500513          	li	a0,37
    800006e2:	9902                	jalr	s2
      fmt = last_fmt;
    800006e4:	8456                	mv	s0,s5
      break;
    800006e6:	b355                	j	8000048a <vprintfmt+0x30>
      for (; (ch = *p) != '\0' && (precision < 0 || --precision >= 0); width--) {
    800006e8:	000c4503          	lbu	a0,0(s8)
    800006ec:	ec0519e3          	bnez	a0,800005be <vprintfmt+0x164>
      if ((p = va_arg(ap, char *)) == NULL)
    800006f0:	8c56                	mv	s8,s5
    800006f2:	bb61                	j	8000048a <vprintfmt+0x30>
        p = "(null)";
    800006f4:	00000c17          	auipc	s8,0x0
    800006f8:	224c0c13          	addi	s8,s8,548 # 80000918 <atol+0xa6>
      for (; (ch = *p) != '\0' && (precision < 0 || --precision >= 0); width--) {
    800006fc:	02800513          	li	a0,40
      if (width > 0 && padc != '-')
    80000700:	e7604ce3          	bgtz	s6,80000578 <vprintfmt+0x11e>
    80000704:	bd6d                	j	800005be <vprintfmt+0x164>
}
    80000706:	70b6                	ld	ra,360(sp)
    80000708:	7416                	ld	s0,352(sp)
    8000070a:	64f6                	ld	s1,344(sp)
    8000070c:	6956                	ld	s2,336(sp)
    8000070e:	69b6                	ld	s3,328(sp)
    80000710:	6a16                	ld	s4,320(sp)
    80000712:	7af2                	ld	s5,312(sp)
    80000714:	7b52                	ld	s6,304(sp)
    80000716:	7bb2                	ld	s7,296(sp)
    80000718:	7c12                	ld	s8,288(sp)
    8000071a:	6d52                	ld	s10,272(sp)
    8000071c:	6db2                	ld	s11,264(sp)
    8000071e:	6175                	addi	sp,sp,368
    80000720:	8082                	ret

0000000080000722 <printf>:
{
    80000722:	711d                	addi	sp,sp,-96
    80000724:	ec06                	sd	ra,24(sp)
    80000726:	f42e                	sd	a1,40(sp)
    80000728:	f832                	sd	a2,48(sp)
    8000072a:	fc36                	sd	a3,56(sp)
    8000072c:	e0ba                	sd	a4,64(sp)
    8000072e:	e4be                	sd	a5,72(sp)
    80000730:	e8c2                	sd	a6,80(sp)
    80000732:	ecc6                	sd	a7,88(sp)
  va_start(ap, fmt);
    80000734:	1034                	addi	a3,sp,40
    80000736:	e436                	sd	a3,8(sp)
  vprintfmt((void*)putchar, 0, fmt, ap);
    80000738:	862a                	mv	a2,a0
    8000073a:	4581                	li	a1,0
    8000073c:	00000517          	auipc	a0,0x0
    80000740:	b1050513          	addi	a0,a0,-1264 # 8000024c <putchar>
    80000744:	d17ff0ef          	jal	8000045a <vprintfmt>
}
    80000748:	4501                	li	a0,0
    8000074a:	60e2                	ld	ra,24(sp)
    8000074c:	6125                	addi	sp,sp,96
    8000074e:	8082                	ret

0000000080000750 <sprintf>:
{
    80000750:	711d                	addi	sp,sp,-96
    80000752:	f406                	sd	ra,40(sp)
    80000754:	f022                	sd	s0,32(sp)
    80000756:	e42a                	sd	a0,8(sp)
    80000758:	f832                	sd	a2,48(sp)
    8000075a:	fc36                	sd	a3,56(sp)
    8000075c:	e0ba                	sd	a4,64(sp)
    8000075e:	e4be                	sd	a5,72(sp)
    80000760:	e8c2                	sd	a6,80(sp)
    80000762:	ecc6                	sd	a7,88(sp)
  char* str0 = str;
    80000764:	842a                	mv	s0,a0
  va_start(ap, fmt);
    80000766:	1814                	addi	a3,sp,48
    80000768:	ec36                	sd	a3,24(sp)
  vprintfmt(sprintf_putch, (void**)&str, fmt, ap);
    8000076a:	862e                	mv	a2,a1
    8000076c:	002c                	addi	a1,sp,8
    8000076e:	00000517          	auipc	a0,0x0
    80000772:	aaa50513          	addi	a0,a0,-1366 # 80000218 <sprintf_putch.0>
    80000776:	ce5ff0ef          	jal	8000045a <vprintfmt>
  *str = 0;
    8000077a:	67a2                	ld	a5,8(sp)
    8000077c:	00078023          	sb	zero,0(a5)
}
    80000780:	6522                	ld	a0,8(sp)
    80000782:	9d01                	subw	a0,a0,s0
    80000784:	70a2                	ld	ra,40(sp)
    80000786:	7402                	ld	s0,32(sp)
    80000788:	6125                	addi	sp,sp,96
    8000078a:	8082                	ret

000000008000078c <_init>:
{
    8000078c:	7171                	addi	sp,sp,-176
    8000078e:	f506                	sd	ra,168(sp)
    80000790:	f122                	sd	s0,160(sp)
    80000792:	ed26                	sd	s1,152(sp)
    80000794:	e94a                	sd	s2,144(sp)
    80000796:	e54e                	sd	s3,136(sp)
    80000798:	e152                	sd	s4,128(sp)
    8000079a:	fcd6                	sd	s5,120(sp)
    8000079c:	84aa                	mv	s1,a0
    8000079e:	892e                	mv	s2,a1
    800007a0:	03f10413          	addi	s0,sp,63
    800007a4:	fc047413          	andi	s0,s0,-64
  size_t tdata_size = &_tdata_end - &_tdata_begin;
    800007a8:	82018a13          	addi	s4,gp,-2016 # 80001068 <_end>
    800007ac:	82018593          	addi	a1,gp,-2016 # 80001068 <_end>
    800007b0:	40ba09b3          	sub	s3,s4,a1
  memcpy(thread_pointer, &_tdata_begin, tdata_size);
    800007b4:	8a92                	mv	s5,tp
    800007b6:	864e                	mv	a2,s3
    800007b8:	8512                	mv	a0,tp
    800007ba:	bddff0ef          	jal	80000396 <memcpy>
  memset(thread_pointer + tdata_size, 0, tbss_size);
    800007be:	82018613          	addi	a2,gp,-2016 # 80001068 <_end>
    800007c2:	41460633          	sub	a2,a2,s4
    800007c6:	4581                	li	a1,0
    800007c8:	013a8533          	add	a0,s5,s3
    800007cc:	c0fff0ef          	jal	800003da <memset>
  thread_entry(cid, nc);
    800007d0:	85ca                	mv	a1,s2
    800007d2:	8526                	mv	a0,s1
    800007d4:	b5dff0ef          	jal	80000330 <thread_entry>
	*UART_LCR = 0b0000011; // 8-bit characters, 1 stop bit, no parity
    800007d8:	100007b7          	lui	a5,0x10000
    800007dc:	470d                	li	a4,3
    800007de:	00e781a3          	sb	a4,3(a5) # 10000003 <_start-0x6ffffffd>
  int ret = main(0, 0);
    800007e2:	4581                	li	a1,0
    800007e4:	4501                	li	a0,0
    800007e6:	9f7ff0ef          	jal	800001dc <main>
    800007ea:	84aa                	mv	s1,a0
    if (counters[i])
    800007ec:	00001697          	auipc	a3,0x1
    800007f0:	85c6b683          	ld	a3,-1956(a3) # 80001048 <counters>
    800007f4:	e69d                	bnez	a3,80000822 <_init+0x96>
    800007f6:	8081b683          	ld	a3,-2040(gp) # 80001050 <counters+0x8>
    800007fa:	c28d                	beqz	a3,8000081c <_init+0x90>
  char* pbuf = buf;
    800007fc:	8922                	mv	s2,s0
      pbuf += sprintf(pbuf, "%s = %d\n", counter_names[i], counters[i]);
    800007fe:	8181b603          	ld	a2,-2024(gp) # 80001060 <counter_names+0x8>
    80000802:	00000597          	auipc	a1,0x0
    80000806:	11e58593          	addi	a1,a1,286 # 80000920 <atol+0xae>
    8000080a:	854a                	mv	a0,s2
    8000080c:	f45ff0ef          	jal	80000750 <sprintf>
    80000810:	992a                	add	s2,s2,a0
  if (pbuf != buf)
    80000812:	01240563          	beq	s0,s2,8000081c <_init+0x90>
  uartPutStr(s);
    80000816:	8522                	mv	a0,s0
    80000818:	a61ff0ef          	jal	80000278 <uartPutStr>
  tohost_exit(code);
    8000081c:	8526                	mv	a0,s1
    8000081e:	ac3ff0ef          	jal	800002e0 <tohost_exit>
      pbuf += sprintf(pbuf, "%s = %d\n", counter_names[i], counters[i]);
    80000822:	00001997          	auipc	s3,0x1
    80000826:	82698993          	addi	s3,s3,-2010 # 80001048 <counters>
    8000082a:	0109b603          	ld	a2,16(s3)
    8000082e:	00000597          	auipc	a1,0x0
    80000832:	0f258593          	addi	a1,a1,242 # 80000920 <atol+0xae>
    80000836:	8522                	mv	a0,s0
    80000838:	f19ff0ef          	jal	80000750 <sprintf>
    8000083c:	00a40933          	add	s2,s0,a0
    if (counters[i])
    80000840:	0089b683          	ld	a3,8(s3)
    80000844:	d6f9                	beqz	a3,80000812 <_init+0x86>
    80000846:	bf65                	j	800007fe <_init+0x72>

0000000080000848 <strcmp>:
int strcmp(const char* s1, const char* s2)
{
  unsigned char c1, c2;

  do {
    c1 = *s1++;
    80000848:	0505                	addi	a0,a0,1
    8000084a:	fff54783          	lbu	a5,-1(a0)
    c2 = *s2++;
    8000084e:	0585                	addi	a1,a1,1
    80000850:	fff5c703          	lbu	a4,-1(a1)
  } while (c1 != 0 && c1 == c2);
    80000854:	c399                	beqz	a5,8000085a <strcmp+0x12>
    80000856:	fee789e3          	beq	a5,a4,80000848 <strcmp>

  return c1 - c2;
}
    8000085a:	40e7853b          	subw	a0,a5,a4
    8000085e:	8082                	ret

0000000080000860 <strcpy>:

char* strcpy(char* dest, const char* src)
{
  char* d = dest;
    80000860:	87aa                	mv	a5,a0
  while ((*d++ = *src++))
    80000862:	0585                	addi	a1,a1,1
    80000864:	0785                	addi	a5,a5,1
    80000866:	fff5c703          	lbu	a4,-1(a1)
    8000086a:	fee78fa3          	sb	a4,-1(a5)
    8000086e:	fb75                	bnez	a4,80000862 <strcpy+0x2>
    ;
  return dest;
}
    80000870:	8082                	ret

0000000080000872 <atol>:
long atol(const char* str)
{
  long res = 0;
  int sign = 0;

  while (*str == ' ')
    80000872:	00054783          	lbu	a5,0(a0)
    80000876:	02000713          	li	a4,32
    8000087a:	00e79763          	bne	a5,a4,80000888 <atol+0x16>
    str++;
    8000087e:	0505                	addi	a0,a0,1
  while (*str == ' ')
    80000880:	00054783          	lbu	a5,0(a0)
    80000884:	fee78de3          	beq	a5,a4,8000087e <atol+0xc>

  if (*str == '-' || *str == '+') {
    80000888:	fd57871b          	addiw	a4,a5,-43
    8000088c:	0fd77713          	andi	a4,a4,253
    80000890:	cb01                	beqz	a4,800008a0 <atol+0x2e>
    sign = *str == '-';
    str++;
  }

  while (*str) {
    80000892:	00054703          	lbu	a4,0(a0)
    80000896:	86aa                	mv	a3,a0
  int sign = 0;
    80000898:	4601                	li	a2,0
  while (*str) {
    8000089a:	ef01                	bnez	a4,800008b2 <atol+0x40>
    8000089c:	4501                	li	a0,0
    res *= 10;
    res += *str++ - '0';
  }

  return sign ? -res : res;
}
    8000089e:	8082                	ret
    sign = *str == '-';
    800008a0:	fd378793          	addi	a5,a5,-45
    800008a4:	0017b613          	seqz	a2,a5
    str++;
    800008a8:	00150693          	addi	a3,a0,1
  while (*str) {
    800008ac:	00154703          	lbu	a4,1(a0)
    800008b0:	c315                	beqz	a4,800008d4 <atol+0x62>
  int sign = 0;
    800008b2:	4501                	li	a0,0
    res *= 10;
    800008b4:	00251793          	slli	a5,a0,0x2
    800008b8:	97aa                	add	a5,a5,a0
    800008ba:	0786                	slli	a5,a5,0x1
    res += *str++ - '0';
    800008bc:	0685                	addi	a3,a3,1
    800008be:	fd07071b          	addiw	a4,a4,-48
    800008c2:	00f70533          	add	a0,a4,a5
  while (*str) {
    800008c6:	0006c703          	lbu	a4,0(a3)
    800008ca:	f76d                	bnez	a4,800008b4 <atol+0x42>
  return sign ? -res : res;
    800008cc:	da69                	beqz	a2,8000089e <atol+0x2c>
    800008ce:	40a00533          	neg	a0,a0
    800008d2:	8082                	ret
  while (*str) {
    800008d4:	4501                	li	a0,0
    800008d6:	bfdd                	j	800008cc <atol+0x5a>

Disassembly of section .rodata.str1.8:

00000000800008d8 <.rodata.str1.8>:
    800008d8:	203d2073          	csrs	0x203,s10
    800008dc:	6425                	lui	s0,0x9
    800008de:	000a                	c.slli	zero,0x2
    800008e0:	636d                	lui	t1,0x1b
    800008e2:	6379                	lui	t1,0x1e
    800008e4:	656c                	ld	a1,200(a0)
	...
    800008ee:	0000                	unimp
    800008f0:	696d                	lui	s2,0x1b
    800008f2:	736e                	ld	t1,248(sp)
    800008f4:	7274                	ld	a3,224(a2)
    800008f6:	7465                	lui	s0,0xffff9
	...
    80000900:	6d49                	lui	s10,0x12
    80000902:	6c70                	ld	a2,216(s0)
    80000904:	6d65                	lui	s10,0x19
    80000906:	6e65                	lui	t3,0x19
    80000908:	2074                	fld	fa3,192(s0)
    8000090a:	616d                	addi	sp,sp,240
    8000090c:	6e69                	lui	t3,0x1a
    8000090e:	2928                	fld	fa0,80(a0)
    80000910:	202c                	fld	fa1,64(s0)
    80000912:	6f66                	ld	t5,88(sp)
    80000914:	000a216f          	jal	sp,800a2914 <__global_pointer$+0xa10cc>
    80000918:	6e28                	ld	a0,88(a2)
    8000091a:	6c75                	lui	s8,0x1d
    8000091c:	296c                	fld	fa1,208(a0)
    8000091e:	0000                	unimp
    80000920:	7325                	lui	t1,0xfffe9
    80000922:	3d20                	fld	fs0,120(a0)
    80000924:	2520                	fld	fs0,72(a0)
    80000926:	0a64                	addi	s1,sp,284
	...

Disassembly of section .rodata:

000000008000092c <.rodata>:
    8000092c:	fc1e                	sd	t2,56(sp)
    8000092e:	ffff                	.insn	2, 0xffff
    80000930:	fdb0                	sd	a2,120(a1)
    80000932:	ffff                	.insn	2, 0xffff
    80000934:	fda6                	sd	s1,248(sp)
    80000936:	ffff                	.insn	2, 0xffff
    80000938:	fdb0                	sd	a2,120(a1)
    8000093a:	ffff                	.insn	2, 0xffff
    8000093c:	fdb0                	sd	a2,120(a1)
    8000093e:	ffff                	.insn	2, 0xffff
    80000940:	fdb0                	sd	a2,120(a1)
    80000942:	ffff                	.insn	2, 0xffff
    80000944:	fdb0                	sd	a2,120(a1)
    80000946:	ffff                	.insn	2, 0xffff
    80000948:	fbfa                	sd	t5,496(sp)
    8000094a:	ffff                	.insn	2, 0xffff
    8000094c:	fdb0                	sd	a2,120(a1)
    8000094e:	ffff                	.insn	2, 0xffff
    80000950:	fdb0                	sd	a2,120(a1)
    80000952:	ffff                	.insn	2, 0xffff
    80000954:	fbb0                	sd	a2,112(a5)
    80000956:	ffff                	.insn	2, 0xffff
    80000958:	fc0c                	sd	a1,56(s0)
    8000095a:	ffff                	.insn	2, 0xffff
    8000095c:	fdb0                	sd	a2,120(a1)
    8000095e:	ffff                	.insn	2, 0xffff
    80000960:	fbb0                	sd	a2,112(a5)
    80000962:	ffff                	.insn	2, 0xffff
    80000964:	fbbc                	sd	a5,112(a5)
    80000966:	ffff                	.insn	2, 0xffff
    80000968:	fbbc                	sd	a5,112(a5)
    8000096a:	ffff                	.insn	2, 0xffff
    8000096c:	fbbc                	sd	a5,112(a5)
    8000096e:	ffff                	.insn	2, 0xffff
    80000970:	fbbc                	sd	a5,112(a5)
    80000972:	ffff                	.insn	2, 0xffff
    80000974:	fbbc                	sd	a5,112(a5)
    80000976:	ffff                	.insn	2, 0xffff
    80000978:	fbbc                	sd	a5,112(a5)
    8000097a:	ffff                	.insn	2, 0xffff
    8000097c:	fbbc                	sd	a5,112(a5)
    8000097e:	ffff                	.insn	2, 0xffff
    80000980:	fbbc                	sd	a5,112(a5)
    80000982:	ffff                	.insn	2, 0xffff
    80000984:	fbbc                	sd	a5,112(a5)
    80000986:	ffff                	.insn	2, 0xffff
    80000988:	fdb0                	sd	a2,120(a1)
    8000098a:	ffff                	.insn	2, 0xffff
    8000098c:	fdb0                	sd	a2,120(a1)
    8000098e:	ffff                	.insn	2, 0xffff
    80000990:	fdb0                	sd	a2,120(a1)
    80000992:	ffff                	.insn	2, 0xffff
    80000994:	fdb0                	sd	a2,120(a1)
    80000996:	ffff                	.insn	2, 0xffff
    80000998:	fdb0                	sd	a2,120(a1)
    8000099a:	ffff                	.insn	2, 0xffff
    8000099c:	fdb0                	sd	a2,120(a1)
    8000099e:	ffff                	.insn	2, 0xffff
    800009a0:	fdb0                	sd	a2,120(a1)
    800009a2:	ffff                	.insn	2, 0xffff
    800009a4:	fdb0                	sd	a2,120(a1)
    800009a6:	ffff                	.insn	2, 0xffff
    800009a8:	fdb0                	sd	a2,120(a1)
    800009aa:	ffff                	.insn	2, 0xffff
    800009ac:	fdb0                	sd	a2,120(a1)
    800009ae:	ffff                	.insn	2, 0xffff
    800009b0:	fdb0                	sd	a2,120(a1)
    800009b2:	ffff                	.insn	2, 0xffff
    800009b4:	fdb0                	sd	a2,120(a1)
    800009b6:	ffff                	.insn	2, 0xffff
    800009b8:	fdb0                	sd	a2,120(a1)
    800009ba:	ffff                	.insn	2, 0xffff
    800009bc:	fdb0                	sd	a2,120(a1)
    800009be:	ffff                	.insn	2, 0xffff
    800009c0:	fdb0                	sd	a2,120(a1)
    800009c2:	ffff                	.insn	2, 0xffff
    800009c4:	fdb0                	sd	a2,120(a1)
    800009c6:	ffff                	.insn	2, 0xffff
    800009c8:	fdb0                	sd	a2,120(a1)
    800009ca:	ffff                	.insn	2, 0xffff
    800009cc:	fdb0                	sd	a2,120(a1)
    800009ce:	ffff                	.insn	2, 0xffff
    800009d0:	fdb0                	sd	a2,120(a1)
    800009d2:	ffff                	.insn	2, 0xffff
    800009d4:	fdb0                	sd	a2,120(a1)
    800009d6:	ffff                	.insn	2, 0xffff
    800009d8:	fdb0                	sd	a2,120(a1)
    800009da:	ffff                	.insn	2, 0xffff
    800009dc:	fdb0                	sd	a2,120(a1)
    800009de:	ffff                	.insn	2, 0xffff
    800009e0:	fdb0                	sd	a2,120(a1)
    800009e2:	ffff                	.insn	2, 0xffff
    800009e4:	fdb0                	sd	a2,120(a1)
    800009e6:	ffff                	.insn	2, 0xffff
    800009e8:	fdb0                	sd	a2,120(a1)
    800009ea:	ffff                	.insn	2, 0xffff
    800009ec:	fdb0                	sd	a2,120(a1)
    800009ee:	ffff                	.insn	2, 0xffff
    800009f0:	fdb0                	sd	a2,120(a1)
    800009f2:	ffff                	.insn	2, 0xffff
    800009f4:	fdb0                	sd	a2,120(a1)
    800009f6:	ffff                	.insn	2, 0xffff
    800009f8:	fdb0                	sd	a2,120(a1)
    800009fa:	ffff                	.insn	2, 0xffff
    800009fc:	fdb0                	sd	a2,120(a1)
    800009fe:	ffff                	.insn	2, 0xffff
    80000a00:	fdb0                	sd	a2,120(a1)
    80000a02:	ffff                	.insn	2, 0xffff
    80000a04:	fdb0                	sd	a2,120(a1)
    80000a06:	ffff                	.insn	2, 0xffff
    80000a08:	fdb0                	sd	a2,120(a1)
    80000a0a:	ffff                	.insn	2, 0xffff
    80000a0c:	fdb0                	sd	a2,120(a1)
    80000a0e:	ffff                	.insn	2, 0xffff
    80000a10:	fdb0                	sd	a2,120(a1)
    80000a12:	ffff                	.insn	2, 0xffff
    80000a14:	fdb0                	sd	a2,120(a1)
    80000a16:	ffff                	.insn	2, 0xffff
    80000a18:	fdb0                	sd	a2,120(a1)
    80000a1a:	ffff                	.insn	2, 0xffff
    80000a1c:	fdb0                	sd	a2,120(a1)
    80000a1e:	ffff                	.insn	2, 0xffff
    80000a20:	fdb0                	sd	a2,120(a1)
    80000a22:	ffff                	.insn	2, 0xffff
    80000a24:	fdb0                	sd	a2,120(a1)
    80000a26:	ffff                	.insn	2, 0xffff
    80000a28:	fdb0                	sd	a2,120(a1)
    80000a2a:	ffff                	.insn	2, 0xffff
    80000a2c:	fc2c                	sd	a1,120(s0)
    80000a2e:	ffff                	.insn	2, 0xffff
    80000a30:	fcb4                	sd	a3,120(s1)
    80000a32:	ffff                	.insn	2, 0xffff
    80000a34:	fdb0                	sd	a2,120(a1)
    80000a36:	ffff                	.insn	2, 0xffff
    80000a38:	fdb0                	sd	a2,120(a1)
    80000a3a:	ffff                	.insn	2, 0xffff
    80000a3c:	fdb0                	sd	a2,120(a1)
    80000a3e:	ffff                	.insn	2, 0xffff
    80000a40:	fdb0                	sd	a2,120(a1)
    80000a42:	ffff                	.insn	2, 0xffff
    80000a44:	fdb0                	sd	a2,120(a1)
    80000a46:	ffff                	.insn	2, 0xffff
    80000a48:	fdb0                	sd	a2,120(a1)
    80000a4a:	ffff                	.insn	2, 0xffff
    80000a4c:	fdb0                	sd	a2,120(a1)
    80000a4e:	ffff                	.insn	2, 0xffff
    80000a50:	fc26                	sd	s1,56(sp)
    80000a52:	ffff                	.insn	2, 0xffff
    80000a54:	fdb0                	sd	a2,120(a1)
    80000a56:	ffff                	.insn	2, 0xffff
    80000a58:	fdb0                	sd	a2,120(a1)
    80000a5a:	ffff                	.insn	2, 0xffff
    80000a5c:	fbb6                	sd	a3,496(sp)
    80000a5e:	ffff                	.insn	2, 0xffff
    80000a60:	fcee                	sd	s11,120(sp)
    80000a62:	ffff                	.insn	2, 0xffff
    80000a64:	fdb0                	sd	a2,120(a1)
    80000a66:	ffff                	.insn	2, 0xffff
    80000a68:	fdb0                	sd	a2,120(a1)
    80000a6a:	ffff                	.insn	2, 0xffff
    80000a6c:	fc3c                	sd	a5,120(s0)
    80000a6e:	ffff                	.insn	2, 0xffff
    80000a70:	fdb0                	sd	a2,120(a1)
    80000a72:	ffff                	.insn	2, 0xffff
    80000a74:	fd76                	sd	t4,184(sp)
    80000a76:	ffff                	.insn	2, 0xffff
    80000a78:	fdb0                	sd	a2,120(a1)
    80000a7a:	ffff                	.insn	2, 0xffff
    80000a7c:	fdb0                	sd	a2,120(a1)
    80000a7e:	ffff                	.insn	2, 0xffff
    80000a80:	fd0a                	sd	sp,184(sp)
    80000a82:	ffff                	.insn	2, 0xffff

Disassembly of section .tohost:

0000000080001000 <tohost>:
	...

0000000080001040 <fromhost>:
	...

Disassembly of section .debug_info:

0000000000000000 <_tbss_end-0x80001068>:
       0:	0000028b          	.insn	4, 0x028b
       4:	0002                	c.slli64	zero
       6:	0000                	unimp
       8:	0000                	unimp
       a:	0108                	addi	a0,sp,128
       c:	0000                	unimp
       e:	0000                	unimp
      10:	d40c                	sw	a1,40(s0)
      12:	0000                	unimp
      14:	df00                	sw	s0,56(a4)
      16:	0000                	unimp
      18:	c200                	sw	s0,0(a2)
      1a:	0001                	nop
      1c:	0080                	addi	s0,sp,64
      1e:	0000                	unimp
      20:	1800                	addi	s0,sp,48
      22:	0002                	c.slli64	zero
      24:	0080                	addi	s0,sp,64
      26:	0000                	unimp
      28:	0000                	unimp
      2a:	0000                	unimp
      2c:	0200                	addi	s0,sp,256
      2e:	0601                	addi	a2,a2,0
      30:	00a0                	addi	s0,sp,72
      32:	0000                	unimp
      34:	0102                	c.slli64	sp
      36:	9e08                	.insn	2, 0x9e08
      38:	0000                	unimp
      3a:	0200                	addi	s0,sp,256
      3c:	0502                	c.slli64	a0
      3e:	013d                	addi	sp,sp,15
      40:	0000                	unimp
      42:	0202                	c.slli64	tp
      44:	0000b507          	fld	fa0,0(ra)
      48:	0300                	addi	s0,sp,384
      4a:	0504                	addi	s1,sp,640
      4c:	6e69                	lui	t3,0x1a
      4e:	0074                	addi	a3,sp,12
      50:	4904                	lw	s1,16(a0)
      52:	0000                	unimp
      54:	0500                	addi	s0,sp,640
      56:	0050                	addi	a2,sp,4
      58:	0000                	unimp
      5a:	4905                	li	s2,1
      5c:	0000                	unimp
      5e:	0200                	addi	s0,sp,256
      60:	0704                	addi	s1,sp,896
      62:	0000011b          	sext.w	sp,zero
      66:	0802                	c.slli64	a6
      68:	3405                	addiw	s0,s0,-31 # ffffffffffff8fe1 <__global_pointer$+0xffffffff7fff7799>
      6a:	0001                	nop
      6c:	0200                	addi	s0,sp,256
      6e:	0708                	addi	a0,sp,896
      70:	0116                	slli	sp,sp,0x5
      72:	0000                	unimp
      74:	0802                	c.slli64	a6
      76:	2f05                	addiw	t5,t5,1
      78:	0001                	nop
      7a:	0200                	addi	s0,sp,256
      7c:	0410                	addi	a2,sp,512
      7e:	00000147          	fmsub.s	ft2,ft0,ft0,ft0,rne
      82:	0102                	c.slli64	sp
      84:	a708                	fsd	fa0,8(a4)
      86:	0000                	unimp
      88:	0500                	addi	s0,sp,640
      8a:	0082                	c.slli64	ra
      8c:	0000                	unimp
      8e:	0806                	slli	a6,a6,0x1
      90:	0089                	addi	ra,ra,2
      92:	0000                	unimp
      94:	0802                	c.slli64	a6
      96:	00011107          	.insn	4, 0x00011107
      9a:	0700                	addi	s0,sp,896
      9c:	2e01                	sext.w	t3,t3
      9e:	0002                	c.slli64	zero
      a0:	0300                	addi	s0,sp,384
      a2:	05ce                	slli	a1,a1,0x13
      a4:	4901                	li	s2,0
      a6:	0000                	unimp
      a8:	0100                	addi	s0,sp,128
      aa:	00b5                	addi	ra,ra,13
      ac:	0000                	unimp
      ae:	8e08                	.insn	2, 0x8e08
      b0:	0000                	unimp
      b2:	0900                	addi	s0,sp,144
      b4:	0a00                	addi	s0,sp,272
      b6:	5301                	li	t1,-32
      b8:	0001                	nop
      ba:	0200                	addi	s0,sp,256
      bc:	0d06                	slli	s10,s10,0x1
      be:	0101                	addi	sp,sp,0
      c0:	00ca                	slli	ra,ra,0x12
      c2:	0000                	unimp
      c4:	4908                	lw	a0,16(a0)
      c6:	0000                	unimp
      c8:	0000                	unimp
      ca:	00cf010b          	.insn	4, 0x00cf010b
      ce:	0000                	unimp
      d0:	1101                	addi	sp,sp,-32
      d2:	0105                	addi	sp,sp,1
      d4:	0049                	c.nop	18
      d6:	0000                	unimp
      d8:	01dc                	addi	a5,sp,196
      da:	8000                	.insn	2, 0x8000
      dc:	0000                	unimp
      de:	0000                	unimp
      e0:	0218                	addi	a4,sp,256
      e2:	8000                	.insn	2, 0x8000
	...
      ec:	b201                	j	fffffffffffff9ec <__global_pointer$+0xffffffff7fffe1a4>
      ee:	0001                	nop
      f0:	0c00                	addi	s0,sp,528
      f2:	12010073          	sfence.vma	sp
      f6:	b209                	j	fffffffffffff9f8 <__global_pointer$+0xffffffff7fffe1b0>
      f8:	0001                	nop
      fa:	0200                	addi	s0,sp,256
      fc:	6891                	lui	a7,0x4
      fe:	ac0d                	j	330 <_start-0x7ffffcd0>
     100:	0000                	unimp
     102:	0100                	addi	s0,sp,128
     104:	0f12                	slli	t5,t5,0x4
     106:	01b2                	slli	gp,gp,0xc
     108:	0000                	unimp
     10a:	150e                	slli	a0,a0,0x23
     10c:	0002                	c.slli64	zero
     10e:	0800                	addi	s0,sp,16
     110:	0002                	c.slli64	zero
     112:	0080                	addi	s0,sp,64
     114:	0000                	unimp
     116:	0c00                	addi	s0,sp,528
     118:	0002                	c.slli64	zero
     11a:	0080                	addi	s0,sp,64
     11c:	0000                	unimp
     11e:	0100                	addi	s0,sp,128
     120:	0c18                	addi	a4,sp,528
     122:	0000014b          	fnmsub.s	ft2,ft0,ft0,ft0,rne
     126:	0002270f          	.insn	4, 0x0002270f
     12a:	4c00                	lw	s0,24(s0)
     12c:	0000                	unimp
     12e:	0f00                	addi	s0,sp,912
     130:	0231                	addi	tp,tp,12 # c <_start-0x7ffffff4>
     132:	0000                	unimp
     134:	0070                	addi	a2,sp,12
     136:	0000                	unimp
     138:	00023d0f          	.insn	4, 0x00023d0f
     13c:	9500                	.insn	2, 0x9500
     13e:	0000                	unimp
     140:	1000                	addi	s0,sp,32
     142:	0249                	addi	tp,tp,18 # 12 <_start-0x7fffffee>
     144:	0000                	unimp
     146:	00c1                	addi	ra,ra,16
     148:	0000                	unimp
     14a:	1100                	addi	s0,sp,160
     14c:	01e8                	addi	a0,sp,204
     14e:	8000                	.insn	2, 0x8000
     150:	0000                	unimp
     152:	0000                	unimp
     154:	00b5                	addi	ra,ra,13
     156:	0000                	unimp
     158:	0162                	slli	sp,sp,0x18
     15a:	0000                	unimp
     15c:	0112                	slli	sp,sp,0x4
     15e:	015a                	slli	sp,sp,0x16
     160:	0031                	c.nop	12
     162:	ee11                	bnez	a2,17e <_start-0x7ffffe82>
     164:	0001                	nop
     166:	0080                	addi	s0,sp,64
     168:	0000                	unimp
     16a:	c200                	sw	s0,0(a2)
     16c:	0001                	nop
     16e:	7900                	ld	s0,48(a0)
     170:	0001                	nop
     172:	1200                	addi	s0,sp,288
     174:	5a01                	li	s4,-32
     176:	3401                	addiw	s0,s0,-32
     178:	1100                	addi	s0,sp,160
     17a:	01fa                	slli	gp,gp,0x1e
     17c:	8000                	.insn	2, 0x8000
     17e:	0000                	unimp
     180:	0000                	unimp
     182:	00b5                	addi	ra,ra,13
     184:	0000                	unimp
     186:	0190                	addi	a2,sp,192
     188:	0000                	unimp
     18a:	0112                	slli	sp,sp,0x4
     18c:	015a                	slli	sp,sp,0x16
     18e:	0030                	addi	a2,sp,8
     190:	00020813          	mv	a6,tp
     194:	0080                	addi	s0,sp,64
     196:	0000                	unimp
     198:	9b00                	.insn	2, 0x9b00
     19a:	0000                	unimp
     19c:	1200                	addi	s0,sp,288
     19e:	5a01                	li	s4,-32
     1a0:	0309                	addi	t1,t1,2 # fffffffffffe9002 <__global_pointer$+0xffffffff7ffe77ba>
     1a2:	08d8                	addi	a4,sp,84
     1a4:	8000                	.insn	2, 0x8000
     1a6:	0000                	unimp
     1a8:	0000                	unimp
     1aa:	0112                	slli	sp,sp,0x4
     1ac:	0078025b          	.insn	4, 0x0078025b
     1b0:	0000                	unimp
     1b2:	4914                	lw	a3,16(a0)
     1b4:	0000                	unimp
     1b6:	c200                	sw	s0,0(a2)
     1b8:	0001                	nop
     1ba:	1500                	addi	s0,sp,672
     1bc:	006d                	c.nop	27
     1be:	0000                	unimp
     1c0:	0000                	unimp
     1c2:	0116                	slli	sp,sp,0x5
     1c4:	006d7573          	csrrci	a0,0x6,26
     1c8:	0801                	addi	a6,a6,0
     1ca:	0106                	slli	sp,sp,0x1
     1cc:	0066                	c.slli	zero,0x19
     1ce:	0000                	unimp
     1d0:	01c2                	slli	gp,gp,0x10
     1d2:	8000                	.insn	2, 0x8000
     1d4:	0000                	unimp
     1d6:	0000                	unimp
     1d8:	01dc                	addi	a5,sp,196
     1da:	8000                	.insn	2, 0x8000
     1dc:	0000                	unimp
     1de:	0000                	unimp
     1e0:	7202                	ld	tp,32(sp)
     1e2:	0100                	addi	s0,sp,128
     1e4:	0215                	addi	tp,tp,5 # 5 <_start-0x7ffffffb>
     1e6:	0000                	unimp
     1e8:	01004e17          	auipc	t3,0x1004
     1ec:	0f08                	addi	a0,sp,912
     1ee:	0066                	c.slli	zero,0x19
     1f0:	0000                	unimp
     1f2:	00e5                	addi	ra,ra,25
     1f4:	0000                	unimp
     1f6:	2818                	fld	fa4,16(s0)
     1f8:	0001                	nop
     1fa:	0100                	addi	s0,sp,128
     1fc:	0809                	addi	a6,a6,2
     1fe:	0066                	c.slli	zero,0x19
     200:	0000                	unimp
     202:	0146                	slli	sp,sp,0x11
     204:	0000                	unimp
     206:	6919                	lui	s2,0x6
     208:	0100                	addi	s0,sp,128
     20a:	1009                	c.nop	-30
     20c:	0066                	c.slli	zero,0x19
     20e:	0000                	unimp
     210:	0191                	addi	gp,gp,4 # 8000184c <__global_pointer$+0x4>
     212:	0000                	unimp
     214:	1a00                	addi	s0,sp,304
     216:	00c8                	addi	a0,sp,68
     218:	0000                	unimp
     21a:	0c02                	c.slli64	s8
     21c:	010c                	addi	a1,sp,128
     21e:	0049                	c.nop	18
     220:	0000                	unimp
     222:	8201                	c.srli64	a2
     224:	0002                	c.slli64	zero
     226:	1b00                	addi	s0,sp,432
     228:	006e                	c.slli	zero,0x1b
     22a:	0c02                	c.slli64	s8
     22c:	00004917          	auipc	s2,0x4
     230:	1c00                	addi	s0,sp,560
     232:	00da                	slli	ra,ra,0x16
     234:	0000                	unimp
     236:	0c02                	c.slli64	s8
     238:	822e                	mv	tp,a1
     23a:	0002                	c.slli64	zero
     23c:	1c00                	addi	s0,sp,560
     23e:	00c8                	addi	a0,sp,68
     240:	0000                	unimp
     242:	0c02                	c.slli64	s8
     244:	0002883f 00691d00 	.insn	8, 0x00691d000002883f
     24c:	0e02                	c.slli64	t3
     24e:	00004907          	.insn	4, 0x4907
     252:	1e00                	addi	s0,sp,816
     254:	741d                	lui	s0,0xfffe7
     256:	0030                	addi	a2,sp,8
     258:	1202                	slli	tp,tp,0x20
     25a:	4909                	li	s2,2
     25c:	0000                	unimp
     25e:	1d00                	addi	s0,sp,688
     260:	3174                	fld	fa3,224(a0)
     262:	0200                	addi	s0,sp,256
     264:	1712                	slli	a4,a4,0x24
     266:	0049                	c.nop	18
     268:	0000                	unimp
     26a:	761d                	lui	a2,0xfffe7
     26c:	0030                	addi	a2,sp,8
     26e:	1302                	slli	t1,t1,0x20
     270:	4909                	li	s2,2
     272:	0000                	unimp
     274:	1d00                	addi	s0,sp,688
     276:	3176                	fld	ft2,376(sp)
     278:	0200                	addi	s0,sp,256
     27a:	00491913          	slli	s2,s2,0x4
     27e:	0000                	unimp
     280:	0000                	unimp
     282:	0806                	slli	a6,a6,0x1
     284:	0055                	c.nop	21
     286:	0000                	unimp
     288:	0806                	slli	a6,a6,0x1
     28a:	005a                	c.slli	zero,0x16
     28c:	0000                	unimp
     28e:	2a00                	fld	fs0,16(a2)
     290:	0000                	unimp
     292:	0200                	addi	s0,sp,256
     294:	aa00                	fsd	fs0,16(a2)
     296:	0001                	nop
     298:	0800                	addi	s0,sp,16
     29a:	8a01                	andi	a2,a2,0
     29c:	0001                	nop
     29e:	0000                	unimp
     2a0:	0000                	unimp
     2a2:	0080                	addi	s0,sp,64
     2a4:	0000                	unimp
     2a6:	c000                	sw	s0,0(s0)
     2a8:	0001                	nop
     2aa:	0080                	addi	s0,sp,64
     2ac:	0000                	unimp
     2ae:	5c00                	lw	s0,56(s0)
     2b0:	0001                	nop
     2b2:	df00                	sw	s0,56(a4)
     2b4:	0000                	unimp
     2b6:	6c00                	ld	s0,24(s0)
     2b8:	0001                	nop
     2ba:	0100                	addi	s0,sp,128
     2bc:	8480                	.insn	2, 0x8480
     2be:	0012                	c.slli	zero,0x4
     2c0:	0200                	addi	s0,sp,256
     2c2:	be00                	fsd	fs0,56(a2)
     2c4:	0001                	nop
     2c6:	0800                	addi	s0,sp,16
     2c8:	0001                	nop
     2ca:	0000                	unimp
     2cc:	0c00                	addi	s0,sp,528
     2ce:	0000038b          	.insn	4, 0x038b
     2d2:	00df 0000 0218      	.insn	6, 0x0218000000df
     2d8:	8000                	.insn	2, 0x8000
     2da:	0000                	unimp
     2dc:	0000                	unimp
     2de:	08d8                	addi	a4,sp,84
     2e0:	8000                	.insn	2, 0x8000
     2e2:	0000                	unimp
     2e4:	0000                	unimp
     2e6:	0585                	addi	a1,a1,1
     2e8:	0000                	unimp
     2ea:	0102                	c.slli64	sp
     2ec:	a006                	fsd	ft1,0(sp)
     2ee:	0000                	unimp
     2f0:	0300                	addi	s0,sp,384
     2f2:	019e                	slli	gp,gp,0x7
     2f4:	0000                	unimp
     2f6:	2b02                	fld	fs6,0(sp)
     2f8:	4018                	lw	a4,0(s0)
     2fa:	0000                	unimp
     2fc:	0200                	addi	s0,sp,256
     2fe:	0801                	addi	a6,a6,0
     300:	009e                	slli	ra,ra,0x7
     302:	0000                	unimp
     304:	0202                	c.slli64	tp
     306:	3d05                	addiw	s10,s10,-31 # 18fe1 <_start-0x7ffe701f>
     308:	0001                	nop
     30a:	0200                	addi	s0,sp,256
     30c:	0702                	c.slli64	a4
     30e:	00b5                	addi	ra,ra,13
     310:	0000                	unimp
     312:	0404                	addi	s1,sp,512
     314:	6905                	lui	s2,0x1
     316:	746e                	ld	s0,248(sp)
     318:	0200                	addi	s0,sp,256
     31a:	0704                	addi	s1,sp,896
     31c:	0000011b          	sext.w	sp,zero
     320:	0802                	c.slli64	a6
     322:	3405                	addiw	s0,s0,-31 # fffffffffffe6fe1 <__global_pointer$+0xffffffff7ffe5799>
     324:	0001                	nop
     326:	0300                	addi	s0,sp,384
     328:	032c                	addi	a1,sp,392
     32a:	0000                	unimp
     32c:	6902                	ld	s2,0(sp)
     32e:	7619                	lui	a2,0xfffe6
     330:	0000                	unimp
     332:	0200                	addi	s0,sp,256
     334:	0708                	addi	a0,sp,896
     336:	0116                	slli	sp,sp,0x5
     338:	0000                	unimp
     33a:	00035803          	lhu	a6,0(t1)
     33e:	0200                	addi	s0,sp,256
     340:	1ae8                	addi	a0,sp,380
     342:	0076                	c.slli	zero,0x1d
     344:	0000                	unimp
     346:	0001a003          	lw	zero,0(gp) # 80001848 <__global_pointer$>
     34a:	0300                	addi	s0,sp,384
     34c:	1318                	addi	a4,sp,416
     34e:	0034                	addi	a3,sp,8
     350:	0000                	unimp
     352:	8905                	andi	a0,a0,1
     354:	0000                	unimp
     356:	0300                	addi	s0,sp,384
     358:	032e                	slli	t1,t1,0xb
     35a:	0000                	unimp
     35c:	6a143c03          	ld	s8,1697(s0)
     360:	0000                	unimp
     362:	0500                	addi	s0,sp,640
     364:	009a                	slli	ra,ra,0x6
     366:	0000                	unimp
     368:	00035a03          	lhu	s4,0(t1)
     36c:	0300                	addi	s0,sp,384
     36e:	1552                	slli	a0,a0,0x34
     370:	007d                	c.nop	31
     372:	0000                	unimp
     374:	ab06                	fsd	ft1,400(sp)
     376:	0000                	unimp
     378:	0300                	addi	s0,sp,384
     37a:	018d                	addi	gp,gp,3 # 8000184b <__global_pointer$+0x3>
     37c:	0000                	unimp
     37e:	d604                	sw	s1,40(a2)
     380:	00007617          	auipc	a2,0x7
     384:	0200                	addi	s0,sp,256
     386:	0508                	addi	a0,sp,640
     388:	0000012f          	.insn	4, 0x012f
     38c:	1002                	c.slli	zero,0x20
     38e:	4704                	lw	s1,8(a4)
     390:	0001                	nop
     392:	0700                	addi	s0,sp,896
     394:	0808                	addi	a0,sp,16
     396:	0c08                	addi	a0,sp,528
     398:	0002                	c.slli64	zero
     39a:	0900                	addi	s0,sp,144
     39c:	e408                	sd	a0,8(s0)
     39e:	0000                	unimp
     3a0:	0200                	addi	s0,sp,256
     3a2:	0801                	addi	a6,a6,0
     3a4:	000000a7          	.insn	4, 0x00a7
     3a8:	e406                	sd	ra,8(sp)
     3aa:	0000                	unimp
     3ac:	0900                	addi	s0,sp,144
     3ae:	eb08                	sd	a0,16(a4)
     3b0:	0000                	unimp
     3b2:	0200                	addi	s0,sp,256
     3b4:	0708                	addi	a0,sp,896
     3b6:	0111                	addi	sp,sp,4
     3b8:	0000                	unimp
     3ba:	0002fa03          	.insn	4, 0x0002fa03
     3be:	0500                	addi	s0,sp,640
     3c0:	1b28                	addi	a0,sp,440
     3c2:	00d8                	addi	a4,sp,68
     3c4:	0000                	unimp
     3c6:	00030103          	lb	sp,0(t1)
     3ca:	0500                	addi	s0,sp,640
     3cc:	00fd1867          	.insn	4, 0x00fd1867
     3d0:	0000                	unimp
     3d2:	430a                	lw	t1,128(sp)
     3d4:	01000003          	lb	zero,16(zero) # 10 <_start-0x7ffffff0>
     3d8:	00a61a0f          	.insn	4, 0x00a61a0f
     3dc:	0000                	unimp
     3de:	0101                	addi	sp,sp,0
     3e0:	0000ab0b          	.insn	4, 0xab0b
     3e4:	3300                	fld	fs0,32(a4)
     3e6:	0001                	nop
     3e8:	0c00                	addi	s0,sp,528
     3ea:	0076                	c.slli	zero,0x1d
     3ec:	0000                	unimp
     3ee:	0001                	nop
     3f0:	cc0d                	beqz	s0,42a <_start-0x7ffffbd6>
     3f2:	0002                	c.slli64	zero
     3f4:	0100                	addi	s0,sp,128
     3f6:	0123124b          	fnmsub.s	ft4,ft6,fs2,ft0,rtz
     3fa:	0000                	unimp
     3fc:	0309                	addi	t1,t1,2
     3fe:	1048                	addi	a0,sp,36
     400:	8000                	.insn	2, 0x8000
     402:	0000                	unimp
     404:	0000                	unimp
     406:	0000de0b          	.insn	4, 0xde0b
     40a:	5900                	lw	s0,48(a0)
     40c:	0001                	nop
     40e:	0c00                	addi	s0,sp,528
     410:	0076                	c.slli	zero,0x1d
     412:	0000                	unimp
     414:	0001                	nop
     416:	4a0d                	li	s4,3
     418:	01000003          	lb	zero,16(zero) # 10 <_start-0x7ffffff0>
     41c:	0e4c                	addi	a1,sp,788
     41e:	0149                	addi	sp,sp,18
     420:	0000                	unimp
     422:	0309                	addi	t1,t1,2
     424:	1058                	addi	a4,sp,36
     426:	8000                	.insn	2, 0x8000
     428:	0000                	unimp
     42a:	0000                	unimp
     42c:	010e                	slli	sp,sp,0x3
     42e:	033e                	slli	t1,t1,0xf
     430:	0000                	unimp
     432:	fa01                	bnez	a2,342 <_start-0x7ffffcbe>
     434:	0601                	addi	a2,a2,0 # 7380 <_start-0x7fff8c80>
     436:	6301                	.insn	2, 0x6301
     438:	0000                	unimp
     43a:	7200                	ld	s0,32(a2)
     43c:	0008                	.insn	2, 0x0008
     43e:	0080                	addi	s0,sp,64
     440:	0000                	unimp
     442:	d800                	sw	s0,48(s0)
     444:	0008                	.insn	2, 0x0008
     446:	0080                	addi	s0,sp,64
     448:	0000                	unimp
     44a:	0200                	addi	s0,sp,256
     44c:	0072                	c.slli	zero,0x1c
     44e:	ca01                	beqz	a2,45e <_start-0x7ffffba2>
     450:	0001                	nop
     452:	0f00                	addi	s0,sp,912
     454:	00727473          	csrrci	s0,0x7,4
     458:	fa01                	bnez	a2,368 <_start-0x7ffffc98>
     45a:	1701                	addi	a4,a4,-32
     45c:	00f0                	addi	a2,sp,76
     45e:	0000                	unimp
     460:	01dc                	addi	a5,sp,196
     462:	0000                	unimp
     464:	7210                	ld	a2,32(a2)
     466:	7365                	lui	t1,0xffff9
     468:	0100                	addi	s0,sp,128
     46a:	01fc                	addi	a5,sp,204
     46c:	6308                	ld	a0,0(a4)
     46e:	0000                	unimp
     470:	4b00                	lw	s0,16(a4)
     472:	0002                	c.slli64	zero
     474:	1100                	addi	s0,sp,160
     476:	03cd                	addi	t2,t2,19
     478:	0000                	unimp
     47a:	fd01                	bnez	a0,392 <_start-0x7ffffc6e>
     47c:	0701                	addi	a4,a4,0
     47e:	0055                	c.nop	21
     480:	0000                	unimp
     482:	02d0                	addi	a2,sp,324
     484:	0000                	unimp
     486:	1200                	addi	s0,sp,288
     488:	b401                	j	fffffffffffffe88 <__global_pointer$+0xffffffff7fffe640>
     48a:	0002                	c.slli64	zero
     48c:	0600                	addi	s0,sp,768
     48e:	0826                	slli	a6,a6,0x9
     490:	de01                	beqz	a2,3a8 <_start-0x7ffffc58>
     492:	0000                	unimp
     494:	6000                	ld	s0,0(s0)
     496:	0008                	.insn	2, 0x0008
     498:	0080                	addi	s0,sp,64
     49a:	0000                	unimp
     49c:	7200                	ld	s0,32(a2)
     49e:	0008                	.insn	2, 0x0008
     4a0:	0080                	addi	s0,sp,64
     4a2:	0000                	unimp
     4a4:	0200                	addi	s0,sp,256
     4a6:	0072                	c.slli	zero,0x1c
     4a8:	2001                	.insn	2, 0x2001
     4aa:	0002                	c.slli64	zero
     4ac:	1300                	addi	s0,sp,416
     4ae:	031d                	addi	t1,t1,7 # ffffffffffff9007 <__global_pointer$+0xffffffff7fff77bf>
     4b0:	0000                	unimp
     4b2:	f201                	bnez	a2,3b2 <_start-0x7ffffc4e>
     4b4:	1401                	addi	s0,s0,-32
     4b6:	00de                	slli	ra,ra,0x17
     4b8:	0000                	unimp
     4ba:	5a01                	li	s4,-32
     4bc:	6372730f          	.insn	4, 0x6372730f
     4c0:	0100                	addi	s0,sp,128
     4c2:	01f2                	slli	gp,gp,0x1c
     4c4:	f026                	sd	s1,32(sp)
     4c6:	0000                	unimp
     4c8:	4900                	lw	s0,16(a0)
     4ca:	10000003          	lb	zero,256(zero) # 100 <_start-0x7fffff00>
     4ce:	0064                	addi	s1,sp,12
     4d0:	f401                	bnez	s0,3d8 <_start-0x7ffffc28>
     4d2:	0901                	addi	s2,s2,0 # 1000 <_start-0x7ffff000>
     4d4:	00de                	slli	ra,ra,0x17
     4d6:	0000                	unimp
     4d8:	037f 0000 1200 8101 	.insn	10, 0x0001810112000000037f
     4e0:	0001 
     4e2:	0600                	addi	s0,sp,768
     4e4:	0624                	addi	s1,sp,776
     4e6:	5501                	li	a0,-32
     4e8:	0000                	unimp
     4ea:	4800                	lw	s0,16(s0)
     4ec:	0008                	.insn	2, 0x0008
     4ee:	0080                	addi	s0,sp,64
     4f0:	0000                	unimp
     4f2:	6000                	ld	s0,0(s0)
     4f4:	0008                	.insn	2, 0x0008
     4f6:	0080                	addi	s0,sp,64
     4f8:	0000                	unimp
     4fa:	0200                	addi	s0,sp,256
     4fc:	0072                	c.slli	zero,0x1c
     4fe:	8301                	c.srli64	a4
     500:	0002                	c.slli64	zero
     502:	0f00                	addi	s0,sp,912
     504:	01003173          	csrrc	sp,0x10,zero
     508:	01e6                	slli	gp,gp,0x19
     50a:	f018                	sd	a4,32(s0)
     50c:	0000                	unimp
     50e:	b500                	fsd	fs0,40(a0)
     510:	0f000003          	lb	zero,240(zero) # f0 <_start-0x7fffff10>
     514:	01003273          	csrrc	tp,0x10,zero
     518:	01e6                	slli	gp,gp,0x19
     51a:	f028                	sd	a0,96(s0)
     51c:	0000                	unimp
     51e:	1900                	addi	s0,sp,176
     520:	0004                	.insn	2, 0x0004
     522:	1400                	addi	s0,sp,544
     524:	01003163          	.insn	4, 0x01003163
     528:	01e8                	addi	a0,sp,204
     52a:	4011                	c.li	zero,4
     52c:	0000                	unimp
     52e:	0100                	addi	s0,sp,128
     530:	145f 3263 0100      	.insn	6, 0x01003263145f
     536:	01e8                	addi	a0,sp,204
     538:	4015                	c.li	zero,5
     53a:	0000                	unimp
     53c:	0100                	addi	s0,sp,128
     53e:	005e                	c.slli	zero,0x17
     540:	0112                	slli	sp,sp,0x4
     542:	03ea                	slli	t2,t2,0x1a
     544:	0000                	unimp
     546:	7706                	ld	a4,96(sp)
     548:	0109                	addi	sp,sp,2
     54a:	00bc                	addi	a5,sp,72
     54c:	0000                	unimp
     54e:	043c                	addi	a5,sp,520
     550:	8000                	.insn	2, 0x8000
     552:	0000                	unimp
     554:	0000                	unimp
     556:	045a                	slli	s0,s0,0x16
     558:	8000                	.insn	2, 0x8000
     55a:	0000                	unimp
     55c:	0000                	unimp
     55e:	7202                	ld	tp,32(sp)
     560:	0100                	addi	s0,sp,128
     562:	000002d7          	.insn	4, 0x02d7
     566:	0100730f          	.insn	4, 0x0100730f
     56a:	01de                	slli	gp,gp,0x17
     56c:	f01c                	sd	a5,32(s0)
     56e:	0000                	unimp
     570:	6500                	ld	s0,8(a0)
     572:	0004                	.insn	2, 0x0004
     574:	0f00                	addi	s0,sp,912
     576:	006e                	c.slli	zero,0x1b
     578:	de01                	beqz	a2,490 <_start-0x7ffffb70>
     57a:	2601                	sext.w	a2,a2
     57c:	00bc                	addi	a5,sp,72
     57e:	0000                	unimp
     580:	04b1                	addi	s1,s1,12
     582:	0000                	unimp
     584:	7010                	ld	a2,32(s0)
     586:	0100                	addi	s0,sp,128
     588:	01e0                	addi	s0,sp,204
     58a:	0000f00f          	.insn	4, 0xf00f
     58e:	3300                	fld	fs0,32(a4)
     590:	0005                	c.nop	1
     592:	0000                	unimp
     594:	0112                	slli	sp,sp,0x4
     596:	027a                	slli	tp,tp,0x1e
     598:	0000                	unimp
     59a:	2906                	fld	fs2,64(sp)
     59c:	0109                	addi	sp,sp,2
     59e:	00bc                	addi	a5,sp,72
     5a0:	0000                	unimp
     5a2:	0422                	slli	s0,s0,0x8
     5a4:	8000                	.insn	2, 0x8000
     5a6:	0000                	unimp
     5a8:	0000                	unimp
     5aa:	043c                	addi	a5,sp,520
     5ac:	8000                	.insn	2, 0x8000
     5ae:	0000                	unimp
     5b0:	0000                	unimp
     5b2:	7202                	ld	tp,32(sp)
     5b4:	0100                	addi	s0,sp,128
     5b6:	031c                	addi	a5,sp,384
     5b8:	0000                	unimp
     5ba:	0100730f          	.insn	4, 0x0100730f
     5be:	01d6                	slli	gp,gp,0x15
     5c0:	0000f01b          	.insn	4, 0xf01b
     5c4:	7c00                	ld	s0,56(s0)
     5c6:	0005                	c.nop	1
     5c8:	1000                	addi	s0,sp,32
     5ca:	0070                	addi	a2,sp,12
     5cc:	d801                	beqz	s0,4dc <_start-0x7ffffb24>
     5ce:	0f01                	addi	t5,t5,0
     5d0:	00f0                	addi	a2,sp,76
     5d2:	0000                	unimp
     5d4:	05c8                	addi	a0,sp,708
     5d6:	0000                	unimp
     5d8:	1200                	addi	s0,sp,288
     5da:	be01                	j	ea <_start-0x7fffff16>
     5dc:	0001                	nop
     5de:	0600                	addi	s0,sp,768
     5e0:	0921                	addi	s2,s2,8
     5e2:	d601                	beqz	a2,4ea <_start-0x7ffffb16>
     5e4:	0000                	unimp
     5e6:	da00                	sw	s0,48(a2)
     5e8:	00800003          	lb	zero,8(zero) # 8 <_start-0x7ffffff8>
     5ec:	0000                	unimp
     5ee:	2200                	fld	fs0,0(a2)
     5f0:	0004                	.insn	2, 0x0004
     5f2:	0080                	addi	s0,sp,64
     5f4:	0000                	unimp
     5f6:	0200                	addi	s0,sp,256
     5f8:	0072                	c.slli	zero,0x1c
     5fa:	cb01                	beqz	a4,60a <_start-0x7ffff9f6>
     5fc:	13000003          	lb	zero,304(zero) # 130 <_start-0x7ffffed0>
     600:	031d                	addi	t1,t1,7
     602:	0000                	unimp
     604:	c301                	beqz	a4,604 <_start-0x7ffff9fc>
     606:	1401                	addi	s0,s0,-32
     608:	00d6                	slli	ra,ra,0x15
     60a:	0000                	unimp
     60c:	5a01                	li	s4,-32
     60e:	5415                	li	s0,-27
     610:	0002                	c.slli64	zero
     612:	0100                	addi	s0,sp,128
     614:	551e01c3          	.insn	4, 0x551e01c3
     618:	0000                	unimp
     61a:	1100                	addi	s0,sp,160
     61c:	0006                	c.slli	zero,0x1
     61e:	0f00                	addi	s0,sp,912
     620:	656c                	ld	a1,200(a0)
     622:	006e                	c.slli	zero,0x1b
     624:	c301                	beqz	a4,624 <_start-0x7ffff9dc>
     626:	2b01                	sext.w	s6,s6
     628:	00bc                	addi	a5,sp,72
     62a:	0000                	unimp
     62c:	00000673          	.insn	4, 0x0673
     630:	f816                	sd	t0,48(sp)
     632:	00800003          	lb	zero,8(zero) # 8 <_start-0x7ffffff8>
     636:	0000                	unimp
     638:	2200                	fld	fs0,0(a2)
     63a:	0004                	.insn	2, 0x0004
     63c:	0080                	addi	s0,sp,64
     63e:	0000                	unimp
     640:	a900                	fsd	fs0,16(a0)
     642:	11000003          	lb	zero,272(zero) # 110 <_start-0x7ffffef0>
     646:	0309                	addi	t1,t1,2
     648:	0000                	unimp
     64a:	c601                	beqz	a2,652 <_start-0x7ffff9ae>
     64c:	0f01                	addi	t5,t5,0
     64e:	000000ab          	.insn	4, 0x00ab
     652:	06d5                	addi	a3,a3,21
     654:	0000                	unimp
     656:	6410                	ld	a2,8(s0)
     658:	0100                	addi	s0,sp,128
     65a:	cb1001cb          	fnmsub.d	ft3,ft0,fa7,fs9,rne
     65e:	41000003          	lb	zero,1040(zero) # 410 <_start-0x7ffffbf0>
     662:	00000007          	.insn	4, 0x0007
     666:	0003e217          	auipc	tp,0x3e
     66a:	0080                	addi	s0,sp,64
     66c:	0000                	unimp
     66e:	f400                	sd	s0,40(s0)
     670:	00800003          	lb	zero,8(zero) # 8 <_start-0x7ffffff8>
     674:	0000                	unimp
     676:	1000                	addi	s0,sp,32
     678:	0064                	addi	s1,sp,12
     67a:	cf01                	beqz	a4,692 <_start-0x7ffff96e>
     67c:	0b01                	addi	s6,s6,0
     67e:	00de                	slli	ra,ra,0x17
     680:	0000                	unimp
     682:	00000777          	.insn	4, 0x0777
     686:	0000                	unimp
     688:	0809                	addi	a6,a6,2
     68a:	000000ab          	.insn	4, 0x00ab
     68e:	0112                	slli	sp,sp,0x4
     690:	02c5                	addi	t0,t0,17
     692:	0000                	unimp
     694:	1f06                	slli	t5,t5,0x21
     696:	0109                	addi	sp,sp,2
     698:	00d6                	slli	ra,ra,0x15
     69a:	0000                	unimp
     69c:	0396                	slli	t2,t2,0x5
     69e:	8000                	.insn	2, 0x8000
     6a0:	0000                	unimp
     6a2:	0000                	unimp
     6a4:	03da                	slli	t2,t2,0x16
     6a6:	8000                	.insn	2, 0x8000
     6a8:	0000                	unimp
     6aa:	0000                	unimp
     6ac:	7202                	ld	tp,32(sp)
     6ae:	0100                	addi	s0,sp,128
     6b0:	0000048b          	.insn	4, 0x048b
     6b4:	00031d13          	slli	s10,t1,0x0
     6b8:	0100                	addi	s0,sp,128
     6ba:	d61401b3          	.insn	4, 0xd61401b3
     6be:	0000                	unimp
     6c0:	0100                	addi	s0,sp,128
     6c2:	0f5a                	slli	t5,t5,0x16
     6c4:	00637273          	csrrci	tp,0x6,6
     6c8:	b301                	j	3c8 <_start-0x7ffffc38>
     6ca:	2601                	sext.w	a2,a2
     6cc:	0000048b          	.insn	4, 0x048b
     6d0:	07c0                	addi	s0,sp,964
     6d2:	0000                	unimp
     6d4:	6e656c0f          	.insn	4, 0x6e656c0f
     6d8:	0100                	addi	s0,sp,128
     6da:	bc3201b3          	.insn	4, 0xbc3201b3
     6de:	0000                	unimp
     6e0:	2200                	fld	fs0,0(a2)
     6e2:	0008                	.insn	2, 0x0008
     6e4:	1600                	addi	s0,sp,800
     6e6:	03c0                	addi	s0,sp,452
     6e8:	8000                	.insn	2, 0x8000
     6ea:	0000                	unimp
     6ec:	0000                	unimp
     6ee:	03da                	slli	t2,t2,0x16
     6f0:	8000                	.insn	2, 0x8000
     6f2:	0000                	unimp
     6f4:	0000                	unimp
     6f6:	045a                	slli	s0,s0,0x16
     6f8:	0000                	unimp
     6fa:	7314                	ld	a3,32(a4)
     6fc:	0100                	addi	s0,sp,128
     6fe:	01b6                	slli	gp,gp,0xd
     700:	9216                	add	tp,tp,t0
     702:	0004                	.insn	2, 0x0004
     704:	0100                	addi	s0,sp,128
     706:	0064105b          	.insn	4, 0x0064105b
     70a:	b701                	j	60a <_start-0x7ffff9f6>
     70c:	1001                	c.nop	-32
     70e:	000003cb          	fnmsub.s	ft7,ft0,ft0,ft0,rne
     712:	0884                	addi	s1,sp,80
     714:	0000                	unimp
     716:	1700                	addi	s0,sp,928
     718:	03a0                	addi	s0,sp,456
     71a:	8000                	.insn	2, 0x8000
     71c:	0000                	unimp
     71e:	0000                	unimp
     720:	03bc                	addi	a5,sp,456
     722:	8000                	.insn	2, 0x8000
     724:	0000                	unimp
     726:	0000                	unimp
     728:	7310                	ld	a2,32(a4)
     72a:	0100                	addi	s0,sp,128
     72c:	f01101bb          	.insn	4, 0xf01101bb
     730:	0000                	unimp
     732:	ba00                	fsd	fs0,48(a2)
     734:	0008                	.insn	2, 0x0008
     736:	1000                	addi	s0,sp,32
     738:	0064                	addi	s1,sp,12
     73a:	bc01                	j	14a <_start-0x7ffffeb6>
     73c:	0b01                	addi	s6,s6,0
     73e:	00de                	slli	ra,ra,0x17
     740:	0000                	unimp
     742:	08f0                	addi	a2,sp,92
     744:	0000                	unimp
     746:	0000                	unimp
     748:	0809                	addi	a6,a6,2
     74a:	0491                	addi	s1,s1,4
     74c:	0000                	unimp
     74e:	0918                	addi	a4,sp,144
     750:	b708                	fsd	fa0,40(a4)
     752:	0000                	unimp
     754:	1900                	addi	s0,sp,176
     756:	2d01                	sext.w	s10,s10
     758:	0002                	c.slli64	zero
     75a:	0700                	addi	s0,sp,896
     75c:	05fa                	slli	a1,a1,0x1e
     75e:	5501                	li	a0,-32
     760:	0000                	unimp
     762:	5000                	lw	s0,32(s0)
     764:	00800007          	.insn	4, 0x00800007
     768:	0000                	unimp
     76a:	8c00                	.insn	2, 0x8c00
     76c:	00800007          	.insn	4, 0x00800007
     770:	0000                	unimp
     772:	3900                	fld	fs0,48(a0)
     774:	0009                	c.nop	2
     776:	0100                	addi	s0,sp,128
     778:	0582                	c.slli64	a1
     77a:	0000                	unimp
     77c:	7274730f          	.insn	4, 0x7274730f
     780:	0100                	addi	s0,sp,128
     782:	019f de13 0000      	.insn	6, 0xde13019f
     788:	8600                	.insn	2, 0x8600
     78a:	0009                	c.nop	2
     78c:	0f00                	addi	s0,sp,912
     78e:	6d66                	ld	s10,88(sp)
     790:	0074                	addi	a3,sp,12
     792:	9f01                	subw	a4,a4,s0
     794:	2401                	sext.w	s0,s0
     796:	00f0                	addi	a2,sp,76
     798:	0000                	unimp
     79a:	09bc                	addi	a5,sp,216
     79c:	0000                	unimp
     79e:	141a                	slli	s0,s0,0x26
     7a0:	7061                	c.lui	zero,0xffff8
     7a2:	0100                	addi	s0,sp,128
     7a4:	01a1                	addi	gp,gp,8 # 80001850 <__global_pointer$+0x8>
     7a6:	0001090b          	.insn	4, 0x0001090b
     7aa:	0300                	addi	s0,sp,384
     7ac:	b891                	j	0 <_start-0x80000000>
     7ae:	0235117f a2010000 	.insn	12, 0x00de0901a20100000235117f
     7b6:	00de0901 
     7ba:	0000                	unimp
     7bc:	0a08                	addi	a0,sp,272
     7be:	0000                	unimp
     7c0:	0002811b          	sext.w	sp,t0
     7c4:	0100                	addi	s0,sp,128
     7c6:	01a5                	addi	gp,gp,9 # 80001851 <__global_pointer$+0x9>
     7c8:	0108                	addi	a0,sp,128
     7ca:	0218                	addi	a4,sp,256
     7cc:	8000                	.insn	2, 0x8000
     7ce:	0000                	unimp
     7d0:	0000                	unimp
     7d2:	0226                	slli	tp,tp,0x9
     7d4:	8000                	.insn	2, 0x8000
     7d6:	0000                	unimp
     7d8:	0000                	unimp
     7da:	7202                	ld	tp,32(sp)
     7dc:	0100                	addi	s0,sp,128
     7de:	0552                	slli	a0,a0,0x14
     7e0:	0000                	unimp
     7e2:	631c                	ld	a5,0(a4)
     7e4:	0068                	addi	a0,sp,12
     7e6:	a501                	j	de6 <_start-0x7ffff21a>
     7e8:	1a01                	addi	s4,s4,-32
     7ea:	0055                	c.nop	21
     7ec:	0000                	unimp
     7ee:	5a01                	li	s4,-32
     7f0:	0002af13          	slti	t5,t0,0
     7f4:	0100                	addi	s0,sp,128
     7f6:	01a5                	addi	gp,gp,9 # 80001851 <__global_pointer$+0x9>
     7f8:	8225                	srli	a2,a2,0x9
     7fa:	0005                	c.nop	1
     7fc:	0100                	addi	s0,sp,128
     7fe:	03ba1d5b          	.insn	4, 0x03ba1d5b
     802:	0000                	unimp
     804:	a701                	j	f04 <_start-0x7ffff0fc>
     806:	0c01                	addi	s8,s8,0 # 1d000 <_start-0x7ffe3000>
     808:	0588                	addi	a0,sp,704
     80a:	0000                	unimp
     80c:	5b01                	li	s6,-32
     80e:	1e00                	addi	s0,sp,816
     810:	077a                	slli	a4,a4,0x1e
     812:	8000                	.insn	2, 0x8000
     814:	0000                	unimp
     816:	0000                	unimp
     818:	0605                	addi	a2,a2,1
     81a:	0000                	unimp
     81c:	011f 095a 1803      	.insn	6, 0x1803095a011f
     822:	0002                	c.slli64	zero
     824:	0080                	addi	s0,sp,64
     826:	0000                	unimp
     828:	1f00                	addi	s0,sp,944
     82a:	5b01                	li	s6,-32
     82c:	7fa89103          	lh	sp,2042(a7) # 47fa <_start-0x7fffb806>
     830:	011f 035c 01f3      	.insn	6, 0x01f3035c011f
     836:	5d011f5b          	.insn	4, 0x5d011f5b
     83a:	9102                	jalr	sp
     83c:	0050                	addi	a2,sp,4
     83e:	0900                	addi	s0,sp,144
     840:	d608                	sw	a0,40(a2)
     842:	0000                	unimp
     844:	0900                	addi	s0,sp,144
     846:	de08                	sw	a0,56(a2)
     848:	0000                	unimp
     84a:	1900                	addi	s0,sp,176
     84c:	2e01                	sext.w	t3,t3
     84e:	0002                	c.slli64	zero
     850:	0700                	addi	s0,sp,896
     852:	05ce                	slli	a1,a1,0x13
     854:	5501                	li	a0,-32
     856:	0000                	unimp
     858:	2200                	fld	fs0,0(a2)
     85a:	00800007          	.insn	4, 0x00800007
     85e:	0000                	unimp
     860:	5000                	lw	s0,32(s0)
     862:	00800007          	.insn	4, 0x00800007
     866:	0000                	unimp
     868:	5400                	lw	s0,40(s0)
     86a:	000a                	c.slli	zero,0x2
     86c:	0100                	addi	s0,sp,128
     86e:	0605                	addi	a2,a2,1
     870:	0000                	unimp
     872:	746d660f          	.insn	4, 0x746d660f
     876:	0100                	addi	s0,sp,128
     878:	0194                	addi	a3,sp,192
     87a:	f018                	sd	a4,32(s0)
     87c:	0000                	unimp
     87e:	a100                	fsd	fs0,0(a0)
     880:	000a                	c.slli	zero,0x2
     882:	1a00                	addi	s0,sp,304
     884:	6114                	ld	a3,0(a0)
     886:	0070                	addi	a2,sp,12
     888:	9601                	srai	a2,a2,0x20
     88a:	0b01                	addi	s6,s6,0
     88c:	0109                	addi	sp,sp,2
     88e:	0000                	unimp
     890:	7fa89103          	lh	sp,2042(a7)
     894:	481e                	lw	a6,196(sp)
     896:	00800007          	.insn	4, 0x00800007
     89a:	0000                	unimp
     89c:	0500                	addi	s0,sp,640
     89e:	0006                	c.slli	zero,0x1
     8a0:	1f00                	addi	s0,sp,944
     8a2:	5a01                	li	s4,-32
     8a4:	0309                	addi	t1,t1,2
     8a6:	024c                	addi	a1,sp,260
     8a8:	8000                	.insn	2, 0x8000
     8aa:	0000                	unimp
     8ac:	0000                	unimp
     8ae:	011f 015b 1f30      	.insn	6, 0x1f30015b011f
     8b4:	5c01                	li	s8,-32
     8b6:	5a01f303          	.insn	4, 0x5a01f303
     8ba:	011f 025d 4891      	.insn	6, 0x4891025d011f
     8c0:	0000                	unimp
     8c2:	9420                	.insn	2, 0x9420
     8c4:	0001                	nop
     8c6:	0100                	addi	s0,sp,128
     8c8:	0dfd                	addi	s11,s11,31
     8ca:	5a01                	li	s4,-32
     8cc:	0004                	.insn	2, 0x0004
     8ce:	0080                	addi	s0,sp,64
     8d0:	0000                	unimp
     8d2:	2200                	fld	fs0,0(a2)
     8d4:	00800007          	.insn	4, 0x00800007
     8d8:	0000                	unimp
     8da:	ed00                	sd	s0,24(a0)
     8dc:	000a                	c.slli	zero,0x2
     8de:	0100                	addi	s0,sp,128
     8e0:	094c                	addi	a1,sp,148
     8e2:	0000                	unimp
     8e4:	8921                	andi	a0,a0,8
     8e6:	0002                	c.slli64	zero
     8e8:	0100                	addi	s0,sp,128
     8ea:	1efd                	addi	t4,t4,-1
     8ec:	095d                	addi	s2,s2,23
     8ee:	0000                	unimp
     8f0:	0b3a                	slli	s6,s6,0xe
     8f2:	0000                	unimp
     8f4:	7a21                	lui	s4,0xfffe8
     8f6:	0001                	nop
     8f8:	0100                	addi	s0,sp,128
     8fa:	3afd                	addiw	s5,s5,-1
     8fc:	0582                	c.slli64	a1
     8fe:	0000                	unimp
     900:	0b86                	slli	s7,s7,0x1
     902:	0000                	unimp
     904:	6622                	ld	a2,8(sp)
     906:	746d                	lui	s0,0xffffb
     908:	0100                	addi	s0,sp,128
     90a:	4efd                	li	t4,31
     90c:	00f0                	addi	a2,sp,76
     90e:	0000                	unimp
     910:	0bd2                	slli	s7,s7,0x14
     912:	0000                	unimp
     914:	6122                	ld	sp,8(sp)
     916:	0070                	addi	a2,sp,12
     918:	fd01                	bnez	a0,830 <_start-0x7ffff7d0>
     91a:	0001095b          	.insn	4, 0x0001095b
     91e:	6700                	ld	s0,8(a4)
     920:	000c                	.insn	2, 0x000c
     922:	2300                	fld	fs0,0(a4)
     924:	0070                	addi	a2,sp,12
     926:	ff01                	bnez	a4,83e <_start-0x7ffff7c2>
     928:	f018                	sd	a4,32(s0)
     92a:	0000                	unimp
     92c:	4d00                	lw	s0,24(a0)
     92e:	000e                	c.slli	zero,0x3
     930:	1100                	addi	s0,sp,160
     932:	0314                	addi	a3,sp,384
     934:	0000                	unimp
     936:	0001                	nop
     938:	0f01                	addi	t5,t5,0
     93a:	00f0                	addi	a2,sp,76
     93c:	0000                	unimp
     93e:	0ed8                	addi	a4,sp,852
     940:	0000                	unimp
     942:	6310                	ld	a2,0(a4)
     944:	0068                	addi	a0,sp,12
     946:	0101                	addi	sp,sp,0
     948:	1001                	c.nop	-32
     94a:	0055                	c.nop	21
     94c:	0000                	unimp
     94e:	00000f47          	fmsub.s	ft10,ft0,ft0,ft0,rne
     952:	6524                	ld	s1,72(a0)
     954:	7272                	ld	tp,312(sp)
     956:	0100                	addi	s0,sp,128
     958:	0101                	addi	sp,sp,0
     95a:	5514                	lw	a3,40(a0)
     95c:	0000                	unimp
     95e:	1000                	addi	s0,sp,32
     960:	756e                	ld	a0,248(sp)
     962:	006d                	c.nop	27
     964:	0201                	addi	tp,tp,0 # 3e666 <_start-0x7ffc199a>
     966:	1601                	addi	a2,a2,-32
     968:	00f6                	slli	ra,ra,0x1d
     96a:	0000                	unimp
     96c:	1299                	addi	t0,t0,-26
     96e:	0000                	unimp
     970:	d511                	beqz	a0,87c <_start-0x7ffff784>
     972:	0002                	c.slli64	zero
     974:	0100                	addi	s0,sp,128
     976:	55070103          	lb	sp,1360(a4)
     97a:	0000                	unimp
     97c:	f500                	sd	s0,40(a0)
     97e:	0012                	c.slli	zero,0x4
     980:	1100                	addi	s0,sp,160
     982:	030e                	slli	t1,t1,0x3
     984:	0000                	unimp
     986:	0301                	addi	t1,t1,0
     988:	0d01                	addi	s10,s10,0
     98a:	0055                	c.nop	21
     98c:	0000                	unimp
     98e:	1352                	slli	t1,t1,0x34
     990:	0000                	unimp
     992:	a111                	j	d96 <_start-0x7ffff26a>
     994:	0002                	c.slli64	zero
     996:	0100                	addi	s0,sp,128
     998:	55140103          	lb	sp,1361(s0) # ffffffffffffb551 <__global_pointer$+0xffffffff7fff9d09>
     99c:	0000                	unimp
     99e:	4800                	lw	s0,16(s0)
     9a0:	0014                	.insn	2, 0x0014
     9a2:	1100                	addi	s0,sp,160
     9a4:	0270                	addi	a2,sp,268
     9a6:	0000                	unimp
     9a8:	0301                	addi	t1,t1,0
     9aa:	1b01                	addi	s6,s6,-32
     9ac:	0055                	c.nop	21
     9ae:	0000                	unimp
     9b0:	1506                	slli	a0,a0,0x21
     9b2:	0000                	unimp
     9b4:	c511                	beqz	a0,9c0 <_start-0x7ffff640>
     9b6:	0001                	nop
     9b8:	0100                	addi	s0,sp,128
     9ba:	55260103          	lb	sp,1362(a2)
     9be:	0000                	unimp
     9c0:	3600                	fld	fs0,40(a2)
     9c2:	0016                	c.slli	zero,0x5
     9c4:	1100                	addi	s0,sp,160
     9c6:	03e0                	addi	s0,sp,460
     9c8:	0000                	unimp
     9ca:	0401                	addi	s0,s0,0
     9cc:	0801                	addi	a6,a6,0
     9ce:	00e4                	addi	s1,sp,76
     9d0:	0000                	unimp
     9d2:	166e                	slli	a2,a2,0x3b
     9d4:	0000                	unimp
     9d6:	bf25                	j	90e <_start-0x7ffff6f2>
     9d8:	01000003          	lb	zero,16(zero) # 10 <_start-0x7ffffff0>
     9dc:	0116                	slli	sp,sp,0x5
     9de:	02682603          	lw	a2,38(a6)
     9e2:	0000                	unimp
     9e4:	4201                	li	tp,0
     9e6:	0501                	addi	a0,a0,0
     9e8:	052e                	slli	a0,a0,0xb
     9ea:	8000                	.insn	2, 0x8000
     9ec:	0000                	unimp
     9ee:	0000                	unimp
     9f0:	e126                	sd	s1,128(sp)
     9f2:	0002                	c.slli64	zero
     9f4:	0100                	addi	s0,sp,128
     9f6:	0182                	c.slli64	gp
     9f8:	4605                	li	a2,1
     9fa:	0006                	c.slli	zero,0x1
     9fc:	0080                	addi	s0,sp,64
     9fe:	0000                	unimp
     a00:	2600                	fld	fs0,8(a2)
     a02:	02df 0000 8001      	.insn	6, 0x8001000002df
     a08:	0501                	addi	a0,a0,0
     a0a:	063a                	slli	a2,a2,0xe
     a0c:	8000                	.insn	2, 0x8000
     a0e:	0000                	unimp
     a10:	0000                	unimp
     a12:	00096327          	.insn	4, 0x00096327
     a16:	e200                	sd	s0,0(a2)
     a18:	0005                	c.nop	1
     a1a:	0080                	addi	s0,sp,64
     a1c:	0000                	unimp
     a1e:	0000                	unimp
     a20:	0000                	unimp
     a22:	0100                	addi	s0,sp,128
     a24:	0162                	slli	sp,sp,0x18
     a26:	810d                	srli	a0,a0,0x3
     a28:	28000007          	.insn	4, 0x28000007
     a2c:	0975                	addi	s2,s2,29
     a2e:	0000                	unimp
     a30:	1705                	addi	a4,a4,-31
     a32:	0000                	unimp
     a34:	8028                	.insn	2, 0x8028
     a36:	0009                	c.nop	2
     a38:	4d00                	lw	s0,24(a0)
     a3a:	00000017          	auipc	zero,0x0
     a3e:	00099327          	.insn	4, 0x00099327
     a42:	2c00                	fld	fs0,24(s0)
     a44:	0006                	c.slli	zero,0x1
     a46:	0080                	addi	s0,sp,64
     a48:	0000                	unimp
     a4a:	3000                	fld	fs0,32(s0)
     a4c:	0000                	unimp
     a4e:	0100                	addi	s0,sp,128
     a50:	0181                	addi	gp,gp,0 # 80001848 <__global_pointer$>
     a52:	ad0d                	j	1084 <_start-0x7fffef7c>
     a54:	28000007          	.insn	4, 0x28000007
     a58:	09a5                	addi	s3,s3,9
     a5a:	0000                	unimp
     a5c:	00001783          	lh	a5,0(zero) # 0 <_start-0x80000000>
     a60:	b028                	fsd	fa0,96(s0)
     a62:	0009                	c.nop	2
     a64:	e700                	sd	s0,8(a4)
     a66:	00000017          	auipc	zero,0x0
     a6a:	0009bd27          	fsd	ft0,26(s3)
     a6e:	4800                	lw	s0,16(s0)
     a70:	0006                	c.slli	zero,0x1
     a72:	0080                	addi	s0,sp,64
     a74:	0000                	unimp
     a76:	8000                	.insn	2, 0x8000
     a78:	0000                	unimp
     a7a:	0100                	addi	s0,sp,128
     a7c:	3f070183          	lb	gp,1008(a4)
     a80:	0008                	.insn	2, 0x0008
     a82:	2800                	fld	fs0,16(s0)
     a84:	000009cb          	fnmsub.s	fs3,ft0,ft0,ft0,rne
     a88:	1831                	addi	a6,a6,-20
     a8a:	0000                	unimp
     a8c:	d728                	sw	a0,104(a4)
     a8e:	0009                	c.nop	2
     a90:	6700                	ld	s0,8(a4)
     a92:	0018                	.insn	2, 0x0018
     a94:	2800                	fld	fs0,16(s0)
     a96:	000009e3          	beqz	zero,12a8 <_start-0x7fffed58>
     a9a:	189d                	addi	a7,a7,-25
     a9c:	0000                	unimp
     a9e:	ef28                	sd	a0,88(a4)
     aa0:	0009                	c.nop	2
     aa2:	c000                	sw	s0,0(s0)
     aa4:	0018                	.insn	2, 0x0018
     aa6:	2800                	fld	fs0,16(s0)
     aa8:	000009fb          	.insn	4, 0x09fb
     aac:	000018e3          	bnez	zero,12bc <_start-0x7fffed44>
     ab0:	0728                	addi	a0,sp,904
     ab2:	000a                	c.slli	zero,0x2
     ab4:	1900                	addi	s0,sp,176
     ab6:	0019                	c.nop	6
     ab8:	2900                	fld	fs0,16(a0)
     aba:	0080                	addi	s0,sp,64
     abc:	0000                	unimp
     abe:	132a                	slli	t1,t1,0x2a
     ac0:	000a                	c.slli	zero,0x2
     ac2:	0300                	addi	s0,sp,384
     ac4:	9091                	srli	s1,s1,0x24
     ac6:	2b7d                	addiw	s6,s6,31
     ac8:	0a1f 0000 193c      	.insn	6, 0x193c00000a1f
     ace:	0000                	unimp
     ad0:	802c                	.insn	2, 0x802c
     ad2:	0006                	c.slli	zero,0x1
     ad4:	0080                	addi	s0,sp,64
     ad6:	0000                	unimp
     ad8:	2d00                	fld	fs0,24(a0)
     ada:	0008                	.insn	2, 0x0008
     adc:	1f00                	addi	s0,sp,944
     ade:	5a01                	li	s4,-32
     ae0:	8702                	jr	a4
     ae2:	1f00                	addi	s0,sp,944
     ae4:	5b01                	li	s6,-32
     ae6:	7902                	ld	s2,32(sp)
     ae8:	0000                	unimp
     aea:	b82d                	j	324 <_start-0x7ffffcdc>
     aec:	0006                	c.slli	zero,0x1
     aee:	0080                	addi	s0,sp,64
     af0:	0000                	unimp
     af2:	1f00                	addi	s0,sp,944
     af4:	5b01                	li	s6,-32
     af6:	7902                	ld	s2,32(sp)
     af8:	0000                	unimp
     afa:	0000                	unimp
     afc:	9c2c                	.insn	2, 0x9c2c
     afe:	0004                	.insn	2, 0x0004
     b00:	0080                	addi	s0,sp,64
     b02:	0000                	unimp
     b04:	5300                	lw	s0,32(a4)
     b06:	0008                	.insn	2, 0x0008
     b08:	1f00                	addi	s0,sp,944
     b0a:	5b01                	li	s6,-32
     b0c:	7902                	ld	s2,32(sp)
     b0e:	0000                	unimp
     b10:	642c                	ld	a1,72(s0)
     b12:	0005                	c.nop	1
     b14:	0080                	addi	s0,sp,64
     b16:	0000                	unimp
     b18:	6700                	ld	s0,8(a4)
     b1a:	0008                	.insn	2, 0x0008
     b1c:	1f00                	addi	s0,sp,944
     b1e:	5b01                	li	s6,-32
     b20:	7902                	ld	s2,32(sp)
     b22:	0000                	unimp
     b24:	902e                	c.add	zero,a1
     b26:	0005                	c.nop	1
     b28:	0080                	addi	s0,sp,64
     b2a:	0000                	unimp
     b2c:	8300                	.insn	2, 0x8300
     b2e:	0002                	c.slli64	zero
     b30:	8500                	.insn	2, 0x8500
     b32:	0008                	.insn	2, 0x0008
     b34:	1f00                	addi	s0,sp,944
     b36:	5a01                	li	s4,-32
     b38:	8802                	jr	a6
     b3a:	1f00                	addi	s0,sp,944
     b3c:	5b01                	li	s6,-32
     b3e:	8302                	jr	t1
     b40:	0000                	unimp
     b42:	a02c                	fsd	fa1,64(s0)
     b44:	0005                	c.nop	1
     b46:	0080                	addi	s0,sp,64
     b48:	0000                	unimp
     b4a:	9f00                	.insn	2, 0x9f00
     b4c:	0008                	.insn	2, 0x0008
     b4e:	1f00                	addi	s0,sp,944
     b50:	5a01                	li	s4,-32
     b52:	8702                	jr	a4
     b54:	1f00                	addi	s0,sp,944
     b56:	5b01                	li	s6,-32
     b58:	7902                	ld	s2,32(sp)
     b5a:	0000                	unimp
     b5c:	b42c                	fsd	fa1,104(s0)
     b5e:	0005                	c.nop	1
     b60:	0080                	addi	s0,sp,64
     b62:	0000                	unimp
     b64:	b300                	fsd	fs0,32(a4)
     b66:	0008                	.insn	2, 0x0008
     b68:	1f00                	addi	s0,sp,944
     b6a:	5b01                	li	s6,-32
     b6c:	7902                	ld	s2,32(sp)
     b6e:	0000                	unimp
     b70:	d62c                	sw	a1,104(a2)
     b72:	0005                	c.nop	1
     b74:	0080                	addi	s0,sp,64
     b76:	0000                	unimp
     b78:	cd00                	sw	s0,24(a0)
     b7a:	0008                	.insn	2, 0x0008
     b7c:	1f00                	addi	s0,sp,944
     b7e:	5a01                	li	s4,-32
     b80:	8302                	jr	t1
     b82:	1f00                	addi	s0,sp,944
     b84:	5b01                	li	s6,-32
     b86:	7902                	ld	s2,32(sp)
     b88:	0000                	unimp
     b8a:	122c                	addi	a1,sp,296
     b8c:	0006                	c.slli	zero,0x1
     b8e:	0080                	addi	s0,sp,64
     b90:	0000                	unimp
     b92:	e700                	sd	s0,8(a4)
     b94:	0008                	.insn	2, 0x0008
     b96:	1f00                	addi	s0,sp,944
     b98:	5a01                	li	s4,-32
     b9a:	0802                	c.slli64	a6
     b9c:	1f2d                	addi	t5,t5,-21
     b9e:	5b01                	li	s6,-32
     ba0:	7902                	ld	s2,32(sp)
     ba2:	0000                	unimp
     ba4:	242c                	fld	fa1,72(s0)
     ba6:	0006                	c.slli	zero,0x1
     ba8:	0080                	addi	s0,sp,64
     baa:	0000                	unimp
     bac:	0100                	addi	s0,sp,128
     bae:	0009                	c.nop	2
     bb0:	1f00                	addi	s0,sp,944
     bb2:	5a01                	li	s4,-32
     bb4:	0802                	c.slli64	a6
     bb6:	1f30                	addi	a2,sp,952
     bb8:	5b01                	li	s6,-32
     bba:	7902                	ld	s2,32(sp)
     bbc:	0000                	unimp
     bbe:	2c2c                	fld	fa1,88(s0)
     bc0:	0006                	c.slli	zero,0x1
     bc2:	0080                	addi	s0,sp,64
     bc4:	0000                	unimp
     bc6:	1b00                	addi	s0,sp,432
     bc8:	0009                	c.nop	2
     bca:	1f00                	addi	s0,sp,944
     bcc:	5a01                	li	s4,-32
     bce:	0802                	c.slli64	a6
     bd0:	1f78                	addi	a4,sp,956
     bd2:	5b01                	li	s6,-32
     bd4:	7902                	ld	s2,32(sp)
     bd6:	0000                	unimp
     bd8:	da2c                	sw	a1,112(a2)
     bda:	0006                	c.slli	zero,0x1
     bdc:	0080                	addi	s0,sp,64
     bde:	0000                	unimp
     be0:	3500                	fld	fs0,40(a0)
     be2:	0009                	c.nop	2
     be4:	1f00                	addi	s0,sp,944
     be6:	5a01                	li	s4,-32
     be8:	8402                	jr	s0
     bea:	1f00                	addi	s0,sp,944
     bec:	5b01                	li	s6,-32
     bee:	7902                	ld	s2,32(sp)
     bf0:	0000                	unimp
     bf2:	e42d                	bnez	s0,c5c <_start-0x7ffff3a4>
     bf4:	0006                	c.slli	zero,0x1
     bf6:	0080                	addi	s0,sp,64
     bf8:	0000                	unimp
     bfa:	1f00                	addi	s0,sp,944
     bfc:	5a01                	li	s4,-32
     bfe:	8402                	jr	s0
     c00:	1f00                	addi	s0,sp,944
     c02:	5b01                	li	s6,-32
     c04:	7902                	ld	s2,32(sp)
     c06:	0000                	unimp
     c08:	2f00                	fld	fs0,24(a4)
     c0a:	5d01                	li	s10,-32
     c0c:	0009                	c.nop	2
     c0e:	3000                	fld	fs0,32(s0)
     c10:	0055                	c.nop	21
     c12:	0000                	unimp
     c14:	8230                	.insn	2, 0x8230
     c16:	0005                	c.nop	1
     c18:	0000                	unimp
     c1a:	0809                	addi	a6,a6,2
     c1c:	094c                	addi	a1,sp,148
     c1e:	0000                	unimp
     c20:	3731                	addiw	a4,a4,-20
     c22:	01000003          	lb	zero,16(zero) # 10 <_start-0x7ffffff0>
     c26:	c80112f3          	csrrw	t0,cycleh,sp
     c2a:	0000                	unimp
     c2c:	0100                	addi	s0,sp,128
     c2e:	098d                	addi	s3,s3,3
     c30:	0000                	unimp
     c32:	6132                	ld	sp,264(sp)
     c34:	0070                	addi	a2,sp,12
     c36:	f301                	bnez	a4,b36 <_start-0x7ffff4ca>
     c38:	8d22                	mv	s10,s0
     c3a:	0009                	c.nop	2
     c3c:	3300                	fld	fs0,32(a4)
     c3e:	030e                	slli	t1,t1,0x3
     c40:	0000                	unimp
     c42:	f301                	bnez	a4,b42 <_start-0x7ffff4be>
     c44:	552a                	lw	a0,168(sp)
     c46:	0000                	unimp
     c48:	0000                	unimp
     c4a:	0809                	addi	a6,a6,2
     c4c:	0109                	addi	sp,sp,2
     c4e:	0000                	unimp
     c50:	a731                	j	135c <_start-0x7fffeca4>
     c52:	0002                	c.slli64	zero
     c54:	0100                	addi	s0,sp,128
     c56:	1be9                	addi	s7,s7,-6
     c58:	f601                	bnez	a2,b60 <_start-0x7ffff4a0>
     c5a:	0000                	unimp
     c5c:	0100                	addi	s0,sp,128
     c5e:	09bd                	addi	s3,s3,15
     c60:	0000                	unimp
     c62:	6132                	ld	sp,264(sp)
     c64:	0070                	addi	a2,sp,12
     c66:	e901                	bnez	a0,c76 <_start-0x7ffff38a>
     c68:	8d2c                	.insn	2, 0x8d2c
     c6a:	0009                	c.nop	2
     c6c:	3300                	fld	fs0,32(a4)
     c6e:	030e                	slli	t1,t1,0x3
     c70:	0000                	unimp
     c72:	e901                	bnez	a0,c82 <_start-0x7ffff37e>
     c74:	5534                	lw	a3,104(a0)
     c76:	0000                	unimp
     c78:	0000                	unimp
     c7a:	a034                	fsd	fa3,64(s0)
     c7c:	01000003          	lb	zero,16(zero) # 10 <_start-0x7ffffff0>
     c80:	14d4                	addi	a3,sp,612
     c82:	0301                	addi	t1,t1,0
     c84:	0a2c                	addi	a1,sp,280
     c86:	0000                	unimp
     c88:	00028933          	add	s2,t0,zero
     c8c:	0100                	addi	s0,sp,128
     c8e:	24d4                	fld	fa3,136(s1)
     c90:	095d                	addi	s2,s2,23
     c92:	0000                	unimp
     c94:	00017a33          	and	s4,sp,zero
     c98:	0100                	addi	s0,sp,128
     c9a:	40d4                	lw	a3,4(s1)
     c9c:	0582                	c.slli64	a1
     c9e:	0000                	unimp
     ca0:	6e32                	ld	t3,264(sp)
     ca2:	6d75                	lui	s10,0x1d
     ca4:	0100                	addi	s0,sp,128
     ca6:	28d5                	addiw	a7,a7,21
     ca8:	00f6                	slli	ra,ra,0x1d
     caa:	0000                	unimp
     cac:	0002d533          	srl	a0,t0,zero
     cb0:	0100                	addi	s0,sp,128
     cb2:	36d5                	addiw	a3,a3,-11
     cb4:	005c                	addi	a5,sp,4
     cb6:	0000                	unimp
     cb8:	0002a133          	sltz	sp,t0
     cbc:	0100                	addi	s0,sp,128
     cbe:	40d5                	li	ra,21
     cc0:	0055                	c.nop	21
     cc2:	0000                	unimp
     cc4:	0003e033          	or	zero,t2,zero
     cc8:	0100                	addi	s0,sp,128
     cca:	4bd5                	li	s7,21
     ccc:	0055                	c.nop	21
     cce:	0000                	unimp
     cd0:	4635                	li	a2,13
     cd2:	0002                	c.slli64	zero
     cd4:	0100                	addi	s0,sp,128
     cd6:	0a2c0cd7          	.insn	4, 0x0a2c0cd7
     cda:	0000                	unimp
     cdc:	7036                	.insn	2, 0x7036
     cde:	0100736f          	jal	t1,7cee <_start-0x7fff8312>
     ce2:	07d8                	addi	a4,sp,964
     ce4:	0055                	c.nop	21
     ce6:	0000                	unimp
     ce8:	0b00                	addi	s0,sp,400
     cea:	005c                	addi	a5,sp,4
     cec:	0000                	unimp
     cee:	0a3c                	addi	a5,sp,280
     cf0:	0000                	unimp
     cf2:	760c                	ld	a1,40(a2)
     cf4:	0000                	unimp
     cf6:	3f00                	fld	fs0,56(a4)
     cf8:	3700                	fld	fs0,40(a4)
     cfa:	7301                	lui	t1,0xfffe0
     cfc:	01000003          	lb	zero,16(zero) # 10 <_start-0x7ffffff0>
     d00:	06c6                	slli	a3,a3,0x11
     d02:	4e01                	li	t3,0
     d04:	00800003          	lb	zero,8(zero) # 8 <_start-0x7ffffff8>
     d08:	0000                	unimp
     d0a:	9600                	.insn	2, 0x9600
     d0c:	00800003          	lb	zero,8(zero) # 8 <_start-0x7ffffff8>
     d10:	0000                	unimp
     d12:	db00                	sw	s0,48(a4)
     d14:	0019                	c.nop	6
     d16:	0100                	addi	s0,sp,128
     d18:	0ac1                	addi	s5,s5,16
     d1a:	0000                	unimp
     d1c:	7822                	ld	a6,40(sp)
     d1e:	0100                	addi	s0,sp,128
     d20:	18c6                	slli	a7,a7,0x31
     d22:	009a                	slli	ra,ra,0x6
     d24:	0000                	unimp
     d26:	00001a27          	.insn	4, 0x1a27
     d2a:	7338                	ld	a4,96(a4)
     d2c:	7274                	ld	a3,224(a2)
     d2e:	0100                	addi	s0,sp,128
     d30:	08c8                	addi	a0,sp,84
     d32:	0ac1                	addi	s5,s5,16
     d34:	0000                	unimp
     d36:	9102                	jalr	sp
     d38:	2358                	fld	fa4,128(a4)
     d3a:	0069                	c.nop	26
     d3c:	c901                	beqz	a0,d4c <_start-0x7ffff2b4>
     d3e:	00005507          	.insn	4, 0x5507
     d42:	5d00                	lw	s0,56(a0)
     d44:	001a                	c.slli	zero,0x6
     d46:	3900                	fld	fs0,48(a0)
     d48:	0eda                	slli	t4,t4,0x16
     d4a:	0000                	unimp
     d4c:	038a                	slli	t2,t2,0x2
     d4e:	8000                	.insn	2, 0x8000
     d50:	0000                	unimp
     d52:	0000                	unimp
     d54:	0390                	addi	a2,sp,448
     d56:	8000                	.insn	2, 0x8000
     d58:	0000                	unimp
     d5a:	0000                	unimp
     d5c:	d101                	beqz	a0,c5c <_start-0x7ffff3a4>
     d5e:	0ee92803          	lw	a6,238(s2)
     d62:	0000                	unimp
     d64:	1ae5                	addi	s5,s5,-7
     d66:	0000                	unimp
     d68:	901e                	c.add	zero,t2
     d6a:	00800003          	lb	zero,8(zero) # 8 <_start-0x7ffffff8>
     d6e:	0000                	unimp
     d70:	cf00                	sw	s0,24(a4)
     d72:	0010                	.insn	2, 0x0010
     d74:	1f00                	addi	s0,sp,944
     d76:	5a01                	li	s4,-32
     d78:	9102                	jalr	sp
     d7a:	0058                	addi	a4,sp,4
     d7c:	0000                	unimp
     d7e:	0000e40b          	.insn	4, 0xe40b
     d82:	d100                	sw	s0,32(a0)
     d84:	000a                	c.slli	zero,0x2
     d86:	0c00                	addi	s0,sp,528
     d88:	0076                	c.slli	zero,0x1d
     d8a:	0000                	unimp
     d8c:	0010                	.insn	2, 0x0010
     d8e:	0119                	addi	sp,sp,6
     d90:	021e                	slli	tp,tp,0x7
     d92:	0000                	unimp
     d94:	0105e207          	.insn	4, 0x0105e207
     d98:	0055                	c.nop	21
     d9a:	0000                	unimp
     d9c:	024c                	addi	a1,sp,260
     d9e:	8000                	.insn	2, 0x8000
     da0:	0000                	unimp
     da2:	0000                	unimp
     da4:	0260                	addi	s0,sp,268
     da6:	8000                	.insn	2, 0x8000
     da8:	0000                	unimp
     daa:	0000                	unimp
     dac:	1b1d                	addi	s6,s6,-25
     dae:	0000                	unimp
     db0:	1d01                	addi	s10,s10,-32 # 1cfe0 <_start-0x7ffe3020>
     db2:	2200000b          	.insn	4, 0x2200000b
     db6:	01006863          	bltu	zero,a6,dc6 <_start-0x7ffff23a>
     dba:	11b1                	addi	gp,gp,-20 # 80001834 <_tbss_end+0x7cc>
     dbc:	0055                	c.nop	21
     dbe:	0000                	unimp
     dc0:	1b69                	addi	s6,s6,-6
     dc2:	0000                	unimp
     dc4:	581e                	lw	a6,228(sp)
     dc6:	0002                	c.slli64	zero
     dc8:	0080                	addi	s0,sp,64
     dca:	0000                	unimp
     dcc:	6100                	ld	s0,0(a0)
     dce:	0011                	c.nop	4
     dd0:	1f00                	addi	s0,sp,944
     dd2:	5a01                	li	s4,-32
     dd4:	5a01f303          	.insn	4, 0x5a01f303
     dd8:	0000                	unimp
     dda:	03850137          	lui	sp,0x3850
     dde:	0000                	unimp
     de0:	9c01                	subw	s0,s0,s0
     de2:	0106                	slli	sp,sp,0x1
     de4:	078c                	addi	a1,sp,960
     de6:	8000                	.insn	2, 0x8000
     de8:	0000                	unimp
     dea:	0000                	unimp
     dec:	0848                	addi	a0,sp,20
     dee:	8000                	.insn	2, 0x8000
     df0:	0000                	unimp
     df2:	0000                	unimp
     df4:	1ba2                	slli	s7,s7,0x28
     df6:	0000                	unimp
     df8:	3e01                	addiw	t3,t3,-32 # 10041c8 <_start-0x7effbe38>
     dfa:	000d                	c.nop	3
     dfc:	2200                	fld	fs0,0(a2)
     dfe:	00646963          	bltu	s0,t1,e10 <_start-0x7ffff1f0>
     e02:	9c01                	subw	s0,s0,s0
     e04:	5510                	lw	a2,40(a0)
     e06:	0000                	unimp
     e08:	db00                	sw	s0,48(a4)
     e0a:	2200001b          	addiw	zero,zero,544
     e0e:	636e                	ld	t1,216(sp)
     e10:	0100                	addi	s0,sp,128
     e12:	199c                	addi	a5,sp,240
     e14:	0055                	c.nop	21
     e16:	0000                	unimp
     e18:	00001c27          	.insn	4, 0x1c27
     e1c:	7238                	ld	a4,96(a2)
     e1e:	7465                	lui	s0,0xffff9
     e20:	0100                	addi	s0,sp,128
     e22:	005507a3          	sb	t0,15(a0)
     e26:	0000                	unimp
     e28:	5901                	li	s2,-32
     e2a:	623a                	ld	tp,392(sp)
     e2c:	6675                	lui	a2,0x1d
     e2e:	0100                	addi	s0,sp,128
     e30:	08a5                	addi	a7,a7,9
     e32:	0d3e                	slli	s10,s10,0xf
     e34:	0000                	unimp
     e36:	0240                	addi	s0,sp,260
     e38:	0078                	addi	a4,sp,12
     e3a:	0001883b          	addw	a6,gp,zero
     e3e:	0100                	addi	s0,sp,128
     e40:	09a6                	slli	s3,s3,0x9
     e42:	00de                	slli	ra,ra,0x17
     e44:	0000                	unimp
     e46:	1c9c                	addi	a5,sp,624
     e48:	0000                	unimp
     e4a:	b03c                	fsd	fa5,96(s0)
     e4c:	0000                	unimp
     e4e:	eb00                	sd	s0,16(a4)
     e50:	2300000b          	.insn	4, 0x2300000b
     e54:	0069                	c.nop	26
     e56:	a701                	j	1556 <_start-0x7fffeaaa>
     e58:	550c                	lw	a1,40(a0)
     e5a:	0000                	unimp
     e5c:	f800                	sd	s0,48(s0)
     e5e:	001c                	.insn	2, 0x001c
     e60:	2e00                	fld	fs0,24(a2)
     e62:	0810                	addi	a2,sp,16
     e64:	8000                	.insn	2, 0x8000
     e66:	0000                	unimp
     e68:	0000                	unimp
     e6a:	0498                	addi	a4,sp,576
     e6c:	0000                	unimp
     e6e:	0bc9                	addi	s7,s7,18
     e70:	0000                	unimp
     e72:	011f 025a 0082      	.insn	6, 0x0082025a011f
     e78:	011f 095b 2003      	.insn	6, 0x2003095b011f
     e7e:	0009                	c.nop	2
     e80:	0080                	addi	s0,sp,64
     e82:	0000                	unimp
     e84:	0000                	unimp
     e86:	3c1e                	fld	fs8,480(sp)
     e88:	0008                	.insn	2, 0x0008
     e8a:	0080                	addi	s0,sp,64
     e8c:	0000                	unimp
     e8e:	9800                	.insn	2, 0x9800
     e90:	0004                	.insn	2, 0x0004
     e92:	1f00                	addi	s0,sp,944
     e94:	5a01                	li	s4,-32
     e96:	7802                	ld	a6,32(sp)
     e98:	1f00                	addi	s0,sp,944
     e9a:	5b01                	li	s6,-32
     e9c:	0309                	addi	t1,t1,2 # fffffffffffe0002 <__global_pointer$+0xffffffff7ffde7ba>
     e9e:	0920                	addi	s0,sp,152
     ea0:	8000                	.insn	2, 0x8000
     ea2:	0000                	unimp
     ea4:	0000                	unimp
     ea6:	0000                	unimp
     ea8:	4e3d                	li	t3,15
     eaa:	000d                	c.nop	3
     eac:	a800                	fsd	fs0,16(s0)
     eae:	00800007          	.insn	4, 0x00800007
     eb2:	0000                	unimp
     eb4:	d000                	sw	s0,32(s0)
     eb6:	00800007          	.insn	4, 0x00800007
     eba:	0000                	unimp
     ebc:	0100                	addi	s0,sp,128
     ebe:	039e                	slli	t2,t2,0x7
     ec0:	0c6d                	addi	s8,s8,27
     ec2:	0000                	unimp
     ec4:	5b2a                	lw	s6,168(sp)
     ec6:	000d                	c.nop	3
     ec8:	0100                	addi	s0,sp,128
     eca:	2b54                	fld	fa3,144(a4)
     ecc:	0d91                	addi	s11,s11,4
     ece:	0000                	unimp
     ed0:	1d6c                	addi	a1,sp,700
     ed2:	0000                	unimp
     ed4:	000d9d2b          	.insn	4, 0x000d9d2b
     ed8:	8f00                	.insn	2, 0x8f00
     eda:	001d                	c.nop	7
     edc:	3e00                	fld	fs0,56(a2)
     ede:	00000d67          	jalr	s10,zero # 0 <_start-0x80000000>
     ee2:	3e01                	addiw	t3,t3,-32
     ee4:	0d75                	addi	s10,s10,29
     ee6:	0000                	unimp
     ee8:	3e01                	addiw	t3,t3,-32
     eea:	00000d83          	lb	s11,0(zero) # 0 <_start-0x80000000>
     eee:	2e01                	sext.w	t3,t3
     ef0:	07be                	slli	a5,a5,0xf
     ef2:	8000                	.insn	2, 0x8000
     ef4:	0000                	unimp
     ef6:	0000                	unimp
     ef8:	126d                	addi	tp,tp,-5 # fffffffffffffffb <__global_pointer$+0xffffffff7fffe7b3>
     efa:	0000                	unimp
     efc:	0c50                	addi	a2,sp,532
     efe:	0000                	unimp
     f00:	011f 025a 0085      	.insn	6, 0x0085025a011f
     f06:	011f 025c 0083      	.insn	6, 0x0083025c011f
     f0c:	1e00                	addi	s0,sp,816
     f0e:	07d0                	addi	a2,sp,964
     f10:	8000                	.insn	2, 0x8000
     f12:	0000                	unimp
     f14:	0000                	unimp
     f16:	127a                	slli	tp,tp,0x3e
     f18:	0000                	unimp
     f1a:	011f 055a 0085      	.insn	6, 0x0085055a011f
     f20:	1f220083          	lb	ra,498(tp) # 1f2 <_start-0x7ffffe0e>
     f24:	5b01                	li	s6,-32
     f26:	3001                	.insn	2, 0x3001
     f28:	0000                	unimp
     f2a:	b03d                	j	758 <_start-0x7ffff8a8>
     f2c:	0011                	c.nop	4
     f2e:	d800                	sw	s0,48(s0)
     f30:	00800007          	.insn	4, 0x00800007
     f34:	0000                	unimp
     f36:	e200                	sd	s0,0(a2)
     f38:	00800007          	.insn	4, 0x00800007
     f3c:	0000                	unimp
     f3e:	0100                	addi	s0,sp,128
     f40:	03a0                	addi	s0,sp,456
     f42:	00000c93          	li	s9,0
     f46:	0011bf3f 00000300 	.insn	8, 0x03000011bf3f
     f4e:	0010                	.insn	2, 0x0010
     f50:	da3d                	beqz	a2,ec6 <_start-0x7ffff13a>
     f52:	000e                	c.slli	zero,0x3
     f54:	1600                	addi	s0,sp,800
     f56:	0008                	.insn	2, 0x0008
     f58:	0080                	addi	s0,sp,64
     f5a:	0000                	unimp
     f5c:	1c00                	addi	s0,sp,560
     f5e:	0008                	.insn	2, 0x0008
     f60:	0080                	addi	s0,sp,64
     f62:	0000                	unimp
     f64:	0100                	addi	s0,sp,128
     f66:	0ccd05ab          	.insn	4, 0x0ccd05ab
     f6a:	0000                	unimp
     f6c:	e928                	sd	a0,80(a0)
     f6e:	000e                	c.slli	zero,0x3
     f70:	b200                	fsd	fs0,32(a2)
     f72:	001d                	c.nop	7
     f74:	1e00                	addi	s0,sp,816
     f76:	081c                	addi	a5,sp,16
     f78:	8000                	.insn	2, 0x8000
     f7a:	0000                	unimp
     f7c:	0000                	unimp
     f7e:	000010cf          	fnmadd.s	ft1,ft0,ft0,ft0,rtz
     f82:	011f 025a 0078      	.insn	6, 0x0078025a011f
     f88:	0000                	unimp
     f8a:	4a3d                	li	s4,15
     f8c:	1c00000f          	.insn	4, 0x1c00000f
     f90:	0008                	.insn	2, 0x0008
     f92:	0080                	addi	s0,sp,64
     f94:	0000                	unimp
     f96:	2200                	fld	fs0,0(a2)
     f98:	0008                	.insn	2, 0x0008
     f9a:	0080                	addi	s0,sp,64
     f9c:	0000                	unimp
     f9e:	0100                	addi	s0,sp,128
     fa0:	03ad                	addi	t2,t2,11
     fa2:	00000d07          	.insn	4, 0x0d07
     fa6:	5a28                	lw	a0,112(a2)
     fa8:	d500000f          	.insn	4, 0xd500000f
     fac:	001d                	c.nop	7
     fae:	1e00                	addi	s0,sp,816
     fb0:	0822                	slli	a6,a6,0x8
     fb2:	8000                	.insn	2, 0x8000
     fb4:	0000                	unimp
     fb6:	0000                	unimp
     fb8:	0fd4                	addi	a3,sp,980
     fba:	0000                	unimp
     fbc:	011f 025a 0079      	.insn	6, 0x0079025a011f
     fc2:	0000                	unimp
     fc4:	d82e                	sw	a1,48(sp)
     fc6:	00800007          	.insn	4, 0x00800007
     fca:	0000                	unimp
     fcc:	2f00                	fld	fs0,24(a4)
     fce:	000e                	c.slli	zero,0x3
     fd0:	2500                	fld	fs0,8(a0)
     fd2:	000d                	c.nop	3
     fd4:	1f00                	addi	s0,sp,944
     fd6:	5a01                	li	s4,-32
     fd8:	7902                	ld	s2,32(sp)
     fda:	1f00                	addi	s0,sp,944
     fdc:	5b01                	li	s6,-32
     fde:	8202                	jr	tp
     fe0:	0000                	unimp
     fe2:	ea1e                	sd	t2,272(sp)
     fe4:	00800007          	.insn	4, 0x00800007
     fe8:	0000                	unimp
     fea:	aa00                	fsd	fs0,16(a2)
     fec:	000d                	c.nop	3
     fee:	1f00                	addi	s0,sp,944
     ff0:	5a01                	li	s4,-32
     ff2:	3001                	.insn	2, 0x3001
     ff4:	011f 015b 0030      	.insn	6, 0x0030015b011f
     ffa:	0b00                	addi	s0,sp,400
     ffc:	00e4                	addi	s1,sp,76
     ffe:	0000                	unimp
    1000:	0d4e                	slli	s10,s10,0x13
    1002:	0000                	unimp
    1004:	760c                	ld	a1,40(a2)
    1006:	0000                	unimp
    1008:	3f00                	fld	fs0,56(a4)
    100a:	4000                	lw	s0,0(s0)
    100c:	0000028f          	.insn	4, 0x028f
    1010:	9201                	srli	a2,a2,0x20
    1012:	010d                	addi	sp,sp,3 # 3850003 <_start-0x7c7afffd>
    1014:	0daa                	slli	s11,s11,0xa
    1016:	0000                	unimp
    1018:	cd35                	beqz	a0,1094 <_start-0x7fffef6c>
    101a:	0001                	nop
    101c:	0100                	addi	s0,sp,128
    101e:	1294                	addi	a3,sp,352
    1020:	00d6                	slli	ra,ra,0x15
    1022:	0000                	unimp
    1024:	ff0a                	sd	sp,440(sp)
    1026:	0001                	nop
    1028:	0100                	addi	s0,sp,128
    102a:	0f95                	addi	t6,t6,5
    102c:	00e4                	addi	s1,sp,76
    102e:	0000                	unimp
    1030:	0101                	addi	sp,sp,0
    1032:	af0a                	fsd	ft2,408(sp)
    1034:	01000003          	lb	zero,16(zero) # 10 <_start-0x7ffffff0>
    1038:	1d95                	addi	s11,s11,-27
    103a:	00e4                	addi	s1,sp,76
    103c:	0000                	unimp
    103e:	0101                	addi	sp,sp,0
    1040:	220a                	fld	ft4,128(sp)
    1042:	01000003          	lb	zero,16(zero) # 10 <_start-0x7ffffff0>
    1046:	2995                	addiw	s3,s3,5
    1048:	00e4                	addi	s1,sp,76
    104a:	0000                	unimp
    104c:	0101                	addi	sp,sp,0
    104e:	e535                	bnez	a0,10ba <_start-0x7fffef46>
    1050:	0001                	nop
    1052:	0100                	addi	s0,sp,128
    1054:	0a96                	slli	s5,s5,0x5
    1056:	00bc                	addi	a5,sp,72
    1058:	0000                	unimp
    105a:	6435                	lui	s0,0xd
    105c:	01000003          	lb	zero,16(zero) # 10 <_start-0x7ffffff0>
    1060:	0a98                	addi	a4,sp,336
    1062:	00bc                	addi	a5,sp,72
    1064:	0000                	unimp
    1066:	1900                	addi	s0,sp,176
    1068:	cf01                	beqz	a4,1080 <_start-0x7fffef80>
    106a:	0000                	unimp
    106c:	0100                	addi	s0,sp,128
    106e:	55011b8b          	.insn	4, 0x55011b8b
    1072:	0000                	unimp
    1074:	3600                	fld	fs0,40(a2)
    1076:	00800003          	lb	zero,8(zero) # 8 <_start-0x7ffffff8>
    107a:	0000                	unimp
    107c:	4e00                	lw	s0,24(a2)
    107e:	00800003          	lb	zero,8(zero) # 8 <_start-0x7ffffff8>
    1082:	0000                	unimp
    1084:	f800                	sd	s0,48(s0)
    1086:	001d                	c.nop	7
    1088:	0100                	addi	s0,sp,128
    108a:	00000e2f          	.insn	4, 0x0e2f
    108e:	d221                	beqz	a2,fce <_start-0x7ffff032>
    1090:	01000003          	lb	zero,16(zero) # 10 <_start-0x7ffffff0>
    1094:	0055248b          	.insn	4, 0x0055248b
    1098:	0000                	unimp
    109a:	1e44                	addi	s1,sp,820
    109c:	0000                	unimp
    109e:	e521                	bnez	a0,10e6 <_start-0x7fffef1a>
    10a0:	01000003          	lb	zero,16(zero) # 10 <_start-0x7ffffff0>
    10a4:	0588318b          	.insn	4, 0x0588318b
    10a8:	0000                	unimp
    10aa:	1e7d                	addi	t3,t3,-1
    10ac:	0000                	unimp
    10ae:	da39                	beqz	a2,1004 <_start-0x7fffeffc>
    10b0:	000e                	c.slli	zero,0x3
    10b2:	3a00                	fld	fs0,48(a2)
    10b4:	00800003          	lb	zero,8(zero) # 8 <_start-0x7ffffff8>
    10b8:	0000                	unimp
    10ba:	4600                	lw	s0,8(a2)
    10bc:	00800003          	lb	zero,8(zero) # 8 <_start-0x7ffffff8>
    10c0:	0000                	unimp
    10c2:	0100                	addi	s0,sp,128
    10c4:	038e                	slli	t2,t2,0x3
    10c6:	e928                	sd	a0,80(a0)
    10c8:	000e                	c.slli	zero,0x3
    10ca:	b600                	fsd	fs0,40(a2)
    10cc:	001e                	c.slli	zero,0x7
    10ce:	1e00                	addi	s0,sp,816
    10d0:	0346                	slli	t1,t1,0x11
    10d2:	8000                	.insn	2, 0x8000
    10d4:	0000                	unimp
    10d6:	0000                	unimp
    10d8:	000010cf          	fnmadd.s	ft1,ft0,ft0,ft0,rtz
    10dc:	011f 095a 0003      	.insn	6, 0x0003095a011f
    10e2:	0009                	c.nop	2
    10e4:	0080                	addi	s0,sp,64
    10e6:	0000                	unimp
    10e8:	0000                	unimp
    10ea:	0000                	unimp
    10ec:	0141                	addi	sp,sp,16
    10ee:	03fe                	slli	t2,t2,0x1f
    10f0:	0000                	unimp
    10f2:	8401                	c.srai64	s0
    10f4:	011c                	addi	a5,sp,128
    10f6:	0330                	addi	a2,sp,392
    10f8:	8000                	.insn	2, 0x8000
    10fa:	0000                	unimp
    10fc:	0000                	unimp
    10fe:	0336                	slli	t1,t1,0xd
    1100:	8000                	.insn	2, 0x8000
    1102:	0000                	unimp
    1104:	0000                	unimp
    1106:	7202                	ld	tp,32(sp)
    1108:	0100                	addi	s0,sp,128
    110a:	0e6d                	addi	t3,t3,27
    110c:	0000                	unimp
    110e:	6342                	ld	t1,16(sp)
    1110:	6469                	lui	s0,0x1a
    1112:	0100                	addi	s0,sp,128
    1114:	2d84                	fld	fs1,24(a1)
    1116:	0055                	c.nop	21
    1118:	0000                	unimp
    111a:	5a01                	li	s4,-32
    111c:	6e42                	ld	t3,16(sp)
    111e:	84010063          	beqz	sp,15e <_start-0x7ffffea2>
    1122:	5536                	lw	a0,108(sp)
    1124:	0000                	unimp
    1126:	0100                	addi	s0,sp,128
    1128:	0119005b          	.insn	4, 0x0119005b
    112c:	02da                	slli	t0,t0,0x16
    112e:	0000                	unimp
    1130:	0105e307          	.insn	4, 0x0105e307
    1134:	0055                	c.nop	21
    1136:	0000                	unimp
    1138:	0320                	addi	s0,sp,392
    113a:	8000                	.insn	2, 0x8000
    113c:	0000                	unimp
    113e:	0000                	unimp
    1140:	0330                	addi	a2,sp,392
    1142:	8000                	.insn	2, 0x8000
    1144:	0000                	unimp
    1146:	0000                	unimp
    1148:	1ee2                	slli	t4,t4,0x38
    114a:	0000                	unimp
    114c:	da01                	beqz	a2,105c <_start-0x7fffefa4>
    114e:	000e                	c.slli	zero,0x3
    1150:	2200                	fld	fs0,0(a2)
    1152:	7e010073          	.insn	4, 0x7e010073
    1156:	f016                	sd	t0,32(sp)
    1158:	0000                	unimp
    115a:	2e00                	fld	fs0,24(a2)
    115c:	001f 3900 0eda      	.insn	6, 0x0eda3900001f
    1162:	0000                	unimp
    1164:	0324                	addi	s1,sp,392
    1166:	8000                	.insn	2, 0x8000
    1168:	0000                	unimp
    116a:	0000                	unimp
    116c:	0328                	addi	a0,sp,392
    116e:	8000                	.insn	2, 0x8000
    1170:	0000                	unimp
    1172:	0000                	unimp
    1174:	8001                	c.srli64	s0
    1176:	0ee92803          	lw	a6,238(s2)
    117a:	0000                	unimp
    117c:	00001f67          	.insn	4, 0x1f67
    1180:	281e                	fld	fa6,448(sp)
    1182:	00800003          	lb	zero,8(zero) # 8 <_start-0x7ffffff8>
    1186:	0000                	unimp
    1188:	cf00                	sw	s0,24(a4)
    118a:	0010                	.insn	2, 0x0010
    118c:	1f00                	addi	s0,sp,944
    118e:	5a01                	li	s4,-32
    1190:	5a01f303          	.insn	4, 0x5a01f303
    1194:	0000                	unimp
    1196:	4300                	lw	s0,0(a4)
    1198:	7c01                	lui	s8,0xfffe0
    119a:	01000003          	lb	zero,16(zero) # 10 <_start-0x7ffffff0>
    119e:	01010673          	.insn	4, 0x01010673
    11a2:	0ef4                	addi	a3,sp,860
    11a4:	0000                	unimp
    11a6:	7332                	ld	t1,296(sp)
    11a8:	0100                	addi	s0,sp,128
    11aa:	00f01b73          	csrrw	s6,vcsr,zero
    11ae:	0000                	unimp
    11b0:	4400                	lw	s0,8(s0)
    11b2:	a901                	j	15c2 <_start-0x7fffea3e>
    11b4:	01000003          	lb	zero,16(zero) # 10 <_start-0x7ffffff0>
    11b8:	066e                	slli	a2,a2,0x1b
    11ba:	0306                	slli	t1,t1,0x1
    11bc:	8000                	.insn	2, 0x8000
    11be:	0000                	unimp
    11c0:	0000                	unimp
    11c2:	0312                	slli	t1,t1,0x4
    11c4:	8000                	.insn	2, 0x8000
    11c6:	0000                	unimp
    11c8:	0000                	unimp
    11ca:	1fa0                	addi	s0,sp,1016
    11cc:	0000                	unimp
    11ce:	4a01                	li	s4,0
    11d0:	3900000f          	.insn	4, 0x3900000f
    11d4:	0f4a                	slli	t5,t5,0x12
    11d6:	0000                	unimp
    11d8:	030a                	slli	t1,t1,0x2
    11da:	8000                	.insn	2, 0x8000
    11dc:	0000                	unimp
    11de:	0000                	unimp
    11e0:	0312                	slli	t1,t1,0x4
    11e2:	8000                	.insn	2, 0x8000
    11e4:	0000                	unimp
    11e6:	0000                	unimp
    11e8:	7001                	c.lui	zero,0xfffe0
    11ea:	0f5a4503          	lbu	a0,245(s4) # fffffffffffe80f5 <__global_pointer$+0xffffffff7ffe68ad>
    11ee:	0000                	unimp
    11f0:	1e86                	slli	t4,t4,0x21
    11f2:	0312                	slli	t1,t1,0x4
    11f4:	8000                	.insn	2, 0x8000
    11f6:	0000                	unimp
    11f8:	0000                	unimp
    11fa:	0fd4                	addi	a3,sp,980
    11fc:	0000                	unimp
    11fe:	011f 025a 8608      	.insn	6, 0x8608025a011f
    1204:	0000                	unimp
    1206:	4600                	lw	s0,8(a2)
    1208:	f901                	bnez	a0,1118 <_start-0x7fffeee8>
    120a:	01000003          	lb	zero,16(zero) # 10 <_start-0x7ffffff0>
    120e:	0669                	addi	a2,a2,26 # 1d01a <_start-0x7ffe2fe6>
    1210:	0101                	addi	sp,sp,0
    1212:	6701                	.insn	2, 0x6701
    1214:	3300000f          	.insn	4, 0x3300000f
    1218:	03c8                	addi	a0,sp,452
    121a:	0000                	unimp
    121c:	6901                	.insn	2, 0x6901
    121e:	0000550f          	.insn	4, 0x550f
    1222:	0000                	unimp
    1224:	0119                	addi	sp,sp,6
    1226:	01a8                	addi	a0,sp,200
    1228:	0000                	unimp
    122a:	6401                	.insn	2, 0x6401
    122c:	0121                	addi	sp,sp,8
    122e:	000000ab          	.insn	4, 0x00ab
    1232:	02f2                	slli	t0,t0,0x1c
    1234:	8000                	.insn	2, 0x8000
    1236:	0000                	unimp
    1238:	0000                	unimp
    123a:	02fe                	slli	t0,t0,0x1f
    123c:	8000                	.insn	2, 0x8000
    123e:	0000                	unimp
    1240:	0000                	unimp
    1242:	1fd8                	addi	a4,sp,1012
    1244:	0000                	unimp
    1246:	d401                	beqz	s0,114e <_start-0x7fffeeb2>
    1248:	2100000f          	.insn	4, 0x2100000f
    124c:	01f9                	addi	gp,gp,30 # 80001866 <__global_pointer$+0x1e>
    124e:	0000                	unimp
    1250:	6401                	.insn	2, 0x6401
    1252:	0000ab37          	lui	s6,0xa
    1256:	1000                	addi	s0,sp,32
    1258:	0020                	addi	s0,sp,8
    125a:	2200                	fld	fs0,0(a2)
    125c:	7065                	c.lui	zero,0xffff9
    125e:	64010063          	beqz	sp,189e <_start-0x7fffe762>
    1262:	ab48                	fsd	fa0,144(a4)
    1264:	0000                	unimp
    1266:	4900                	lw	s0,16(a0)
    1268:	0020                	addi	s0,sp,8
    126a:	2100                	fld	fs0,0(a0)
    126c:	036e                	slli	t1,t1,0x1b
    126e:	0000                	unimp
    1270:	6401                	.insn	2, 0x6401
    1272:	0003cb57          	.insn	4, 0x0003cb57
    1276:	8200                	.insn	2, 0x8200
    1278:	0020                	addi	s0,sp,8
    127a:	1e00                	addi	s0,sp,816
    127c:	02fe                	slli	t0,t0,0x1f
    127e:	8000                	.insn	2, 0x8000
    1280:	0000                	unimp
    1282:	0000                	unimp
    1284:	0fd4                	addi	a3,sp,980
    1286:	0000                	unimp
    1288:	011f 035a 390a      	.insn	6, 0x390a035a011f
    128e:	0005                	c.nop	1
    1290:	4700                	lw	s0,8(a4)
    1292:	f201                	bnez	a2,1192 <_start-0x7fffee6e>
    1294:	01000003          	lb	zero,16(zero) # 10 <_start-0x7ffffff0>
    1298:	205e                	fld	ft0,464(sp)
    129a:	0101                	addi	sp,sp,0
    129c:	02e0                	addi	s0,sp,332
    129e:	8000                	.insn	2, 0x8000
    12a0:	0000                	unimp
    12a2:	0000                	unimp
    12a4:	02f2                	slli	t0,t0,0x1c
    12a6:	8000                	.insn	2, 0x8000
    12a8:	0000                	unimp
    12aa:	0000                	unimp
    12ac:	7202                	ld	tp,32(sp)
    12ae:	0100                	addi	s0,sp,128
    12b0:	1006                	c.slli	zero,0x21
    12b2:	0000                	unimp
    12b4:	c848                	sw	a0,20(s0)
    12b6:	01000003          	lb	zero,16(zero) # 10 <_start-0x7ffffff0>
    12ba:	365e                	fld	fa2,496(sp)
    12bc:	000000ab          	.insn	4, 0x00ab
    12c0:	5a01                	li	s4,-32
    12c2:	4100                	lw	s0,0(a0)
    12c4:	5301                	li	t1,-32
    12c6:	0001                	nop
    12c8:	0100                	addi	s0,sp,128
    12ca:	064e                	slli	a2,a2,0x13
    12cc:	9a01                	andi	a2,a2,-32
    12ce:	0002                	c.slli64	zero
    12d0:	0080                	addi	s0,sp,64
    12d2:	0000                	unimp
    12d4:	e000                	sd	s0,0(s0)
    12d6:	0002                	c.slli64	zero
    12d8:	0080                	addi	s0,sp,64
    12da:	0000                	unimp
    12dc:	0200                	addi	s0,sp,256
    12de:	0072                	c.slli	zero,0x1c
    12e0:	cf01                	beqz	a4,12f8 <_start-0x7fffed08>
    12e2:	0010                	.insn	2, 0x0010
    12e4:	4800                	lw	s0,16(s0)
    12e6:	0226                	slli	tp,tp,0x9
    12e8:	0000                	unimp
    12ea:	4e01                	li	t3,0
    12ec:	00005513          	srli	a0,zero,0x0
    12f0:	0100                	addi	s0,sp,128
    12f2:	235a                	fld	ft6,400(sp)
    12f4:	0069                	c.nop	26
    12f6:	5001                	c.li	zero,-32
    12f8:	00005507          	.insn	4, 0x5507
    12fc:	bb00                	fsd	fs0,48(a4)
    12fe:	0020                	addi	s0,sp,8
    1300:	1600                	addi	s0,sp,800
    1302:	029a                	slli	t0,t0,0x6
    1304:	8000                	.insn	2, 0x8000
    1306:	0000                	unimp
    1308:	0000                	unimp
    130a:	02be                	slli	t0,t0,0xf
    130c:	8000                	.insn	2, 0x8000
    130e:	0000                	unimp
    1310:	0000                	unimp
    1312:	108c                	addi	a1,sp,96
    1314:	0000                	unimp
    1316:	72736323          	.insn	4, 0x72736323
    131a:	0100                	addi	s0,sp,128
    131c:	0358                	addi	a4,sp,388
    131e:	000000ab          	.insn	4, 0x00ab
    1322:	00002107          	flw	ft2,0(zero) # 0 <_start-0x80000000>
    1326:	00029a17          	auipc	s4,0x29
    132a:	0080                	addi	s0,sp,64
    132c:	0000                	unimp
    132e:	9e00                	.insn	2, 0x9e00
    1330:	0002                	c.slli64	zero
    1332:	0080                	addi	s0,sp,64
    1334:	0000                	unimp
    1336:	3b00                	fld	fs0,48(a4)
    1338:	0259                	addi	tp,tp,22 # 16 <_start-0x7fffffea>
    133a:	0000                	unimp
    133c:	5801                	li	a6,-32
    133e:	00007603          	.insn	4, 0x7603
    1342:	4500                	lw	s0,8(a0)
    1344:	0021                	c.nop	8
    1346:	0000                	unimp
    1348:	1700                	addi	s0,sp,928
    134a:	02be                	slli	t0,t0,0xf
    134c:	8000                	.insn	2, 0x8000
    134e:	0000                	unimp
    1350:	0000                	unimp
    1352:	02de                	slli	t0,t0,0x17
    1354:	8000                	.insn	2, 0x8000
    1356:	0000                	unimp
    1358:	0000                	unimp
    135a:	6338                	ld	a4,64(a4)
    135c:	01007273          	csrrci	tp,0x10,0
    1360:	0359                	addi	t1,t1,22
    1362:	000000ab          	.insn	4, 0x00ab
    1366:	5f01                	li	t5,-32
    1368:	0002be17          	auipc	t3,0x2b
    136c:	0080                	addi	s0,sp,64
    136e:	0000                	unimp
    1370:	c200                	sw	s0,0(a2)
    1372:	0002                	c.slli64	zero
    1374:	0080                	addi	s0,sp,64
    1376:	0000                	unimp
    1378:	3b00                	fld	fs0,48(a4)
    137a:	0259                	addi	tp,tp,22 # 16 <_start-0x7fffffea>
    137c:	0000                	unimp
    137e:	5901                	li	s2,-32
    1380:	00007603          	.insn	4, 0x7603
    1384:	6800                	ld	s0,16(s0)
    1386:	0021                	c.nop	8
    1388:	0000                	unimp
    138a:	0000                	unimp
    138c:	0119                	addi	sp,sp,6
    138e:	000002ef          	jal	t0,138e <_start-0x7fffec72>
    1392:	2e01                	sext.w	t3,t3
    1394:	0106                	slli	sp,sp,0x1
    1396:	00e4                	addi	s1,sp,76
    1398:	0000                	unimp
    139a:	0278                	addi	a4,sp,268
    139c:	8000                	.insn	2, 0x8000
    139e:	0000                	unimp
    13a0:	0000                	unimp
    13a2:	029a                	slli	t0,t0,0x6
    13a4:	8000                	.insn	2, 0x8000
    13a6:	0000                	unimp
    13a8:	0000                	unimp
    13aa:	0000218b          	.insn	4, 0x218b
    13ae:	1401                	addi	s0,s0,-32 # 19fe0 <_start-0x7ffe6020>
    13b0:	0011                	c.nop	4
    13b2:	2200                	fld	fs0,0(a2)
    13b4:	00727473          	csrrci	s0,0x7,4
    13b8:	2e01                	sext.w	t3,t3
    13ba:	f01d                	bnez	s0,12e0 <_start-0x7fffed20>
    13bc:	0000                	unimp
    13be:	d700                	sw	s0,40(a4)
    13c0:	0021                	c.nop	8
    13c2:	4900                	lw	s0,16(a0)
    13c4:	028c                	addi	a1,sp,320
    13c6:	8000                	.insn	2, 0x8000
    13c8:	0000                	unimp
    13ca:	0000                	unimp
    13cc:	1161                	addi	sp,sp,-8
    13ce:	0000                	unimp
    13d0:	1200                	addi	s0,sp,288
    13d2:	3a01                	addiw	s4,s4,-32 # 2a306 <_start-0x7ffd5cfa>
    13d4:	0002                	c.slli64	zero
    13d6:	0100                	addi	s0,sp,128
    13d8:	0626                	slli	a2,a2,0x9
    13da:	e401                	bnez	s0,13e2 <_start-0x7fffec1e>
    13dc:	0000                	unimp
    13de:	6000                	ld	s0,0(s0)
    13e0:	0002                	c.slli64	zero
    13e2:	0080                	addi	s0,sp,64
    13e4:	0000                	unimp
    13e6:	7800                	ld	s0,48(s0)
    13e8:	0002                	c.slli64	zero
    13ea:	0080                	addi	s0,sp,64
    13ec:	0000                	unimp
    13ee:	0200                	addi	s0,sp,256
    13f0:	0072                	c.slli	zero,0x1c
    13f2:	5b01                	li	s6,-32
    13f4:	0011                	c.nop	4
    13f6:	4a00                	lw	s0,16(a2)
    13f8:	000003d7          	.insn	4, 0x03d7
    13fc:	2701                	sext.w	a4,a4
    13fe:	5b15                	li	s6,-27
    1400:	0011                	c.nop	4
    1402:	0000                	unimp
    1404:	0000                	unimp
    1406:	4a10                	lw	a2,16(a2)
    1408:	0000024b          	fnmsub.s	ft4,ft0,ft0,ft0,rne
    140c:	2801                	sext.w	a6,a6
    140e:	5b15                	li	s6,-27
    1410:	0011                	c.nop	4
    1412:	0500                	addi	s0,sp,640
    1414:	0000                	unimp
    1416:	0010                	.insn	2, 0x0010
    1418:	0809                	addi	a6,a6,2
    141a:	0095                	addi	ra,ra,5
    141c:	0000                	unimp
    141e:	0141                	addi	sp,sp,16
    1420:	025f 0000 1e01      	.insn	6, 0x1e010000025f
    1426:	0106                	slli	sp,sp,0x1
    1428:	0232                	slli	tp,tp,0xc
    142a:	8000                	.insn	2, 0x8000
    142c:	0000                	unimp
    142e:	0000                	unimp
    1430:	024c                	addi	a1,sp,260
    1432:	8000                	.insn	2, 0x8000
    1434:	0000                	unimp
    1436:	0000                	unimp
    1438:	7202                	ld	tp,32(sp)
    143a:	0100                	addi	s0,sp,128
    143c:	11b0                	addi	a2,sp,232
    143e:	0000                	unimp
    1440:	6342                	ld	t1,16(sp)
    1442:	0100                	addi	s0,sp,128
    1444:	141e                	slli	s0,s0,0x27
    1446:	00e4                	addi	s1,sp,76
    1448:	0000                	unimp
    144a:	5a01                	li	s4,-32
    144c:	984a                	add	a6,a6,s2
    144e:	0002                	c.slli64	zero
    1450:	0100                	addi	s0,sp,128
    1452:	151f 115b 0000      	.insn	6, 0x115b151f
    1458:	0000                	unimp
    145a:	1000                	addi	s0,sp,32
    145c:	4b4a                	lw	s6,144(sp)
    145e:	0002                	c.slli64	zero
    1460:	0100                	addi	s0,sp,128
    1462:	1520                	addi	s0,sp,680
    1464:	0000115b          	.insn	4, 0x115b
    1468:	0005                	c.nop	1
    146a:	1000                	addi	s0,sp,32
    146c:	4300                	lw	s0,0(a4)
    146e:	dc01                	beqz	s0,1386 <_start-0x7fffec7a>
    1470:	0001                	nop
    1472:	0100                	addi	s0,sp,128
    1474:	0619                	addi	a2,a2,6
    1476:	0101                	addi	sp,sp,0
    1478:	11cc                	addi	a1,sp,228
    147a:	0000                	unimp
    147c:	f035                	bnez	s0,13e0 <_start-0x7fffec20>
    147e:	0001                	nop
    1480:	0100                	addi	s0,sp,128
    1482:	151a                	slli	a0,a0,0x26
    1484:	0000115b          	.insn	4, 0x115b
    1488:	4b00                	lw	s0,16(a4)
    148a:	11b0                	addi	a2,sp,232
    148c:	0000                	unimp
    148e:	0226                	slli	tp,tp,0x9
    1490:	8000                	.insn	2, 0x8000
    1492:	0000                	unimp
    1494:	0000                	unimp
    1496:	0232                	slli	tp,tp,0xc
    1498:	8000                	.insn	2, 0x8000
    149a:	0000                	unimp
    149c:	0000                	unimp
    149e:	7202                	ld	tp,32(sp)
    14a0:	0100                	addi	s0,sp,128
    14a2:	000011f3          	csrrw	gp,ustatus,zero
    14a6:	0011bf3f 00000300 	.insn	8, 0x03000011bf3f
    14ae:	0010                	.insn	2, 0x0010
    14b0:	4a4c                	lw	a1,20(a2)
    14b2:	fe00000f          	.insn	4, 0xfe00000f
    14b6:	0002                	c.slli64	zero
    14b8:	0080                	addi	s0,sp,64
    14ba:	0000                	unimp
    14bc:	0600                	addi	s0,sp,768
    14be:	00800003          	lb	zero,8(zero) # 8 <_start-0x7ffffff8>
    14c2:	0000                	unimp
    14c4:	0d00                	addi	s0,sp,656
    14c6:	0022                	c.slli	zero,0x8
    14c8:	0100                	addi	s0,sp,128
    14ca:	1230                	addi	a2,sp,296
    14cc:	0000                	unimp
    14ce:	5a28                	lw	a0,112(a2)
    14d0:	4500000f          	.insn	4, 0x4500000f
    14d4:	0022                	c.slli	zero,0x8
    14d6:	1e00                	addi	s0,sp,816
    14d8:	0306                	slli	t1,t1,0x1
    14da:	8000                	.insn	2, 0x8000
    14dc:	0000                	unimp
    14de:	0000                	unimp
    14e0:	0fd4                	addi	a3,sp,980
    14e2:	0000                	unimp
    14e4:	011f 035a 01f3      	.insn	6, 0x01f3035a011f
    14ea:	005a                	c.slli	zero,0x16
    14ec:	4c00                	lw	s0,24(s0)
    14ee:	0eda                	slli	t4,t4,0x16
    14f0:	0000                	unimp
    14f2:	0312                	slli	t1,t1,0x4
    14f4:	8000                	.insn	2, 0x8000
    14f6:	0000                	unimp
    14f8:	0000                	unimp
    14fa:	0320                	addi	s0,sp,392
    14fc:	8000                	.insn	2, 0x8000
    14fe:	0000                	unimp
    1500:	0000                	unimp
    1502:	227e                	fld	ft4,472(sp)
    1504:	0000                	unimp
    1506:	6d01                	.insn	2, 0x6d01
    1508:	0012                	c.slli	zero,0x4
    150a:	2800                	fld	fs0,16(s0)
    150c:	0ee9                	addi	t4,t4,26
    150e:	0000                	unimp
    1510:	22ca                	fld	ft5,144(sp)
    1512:	0000                	unimp
    1514:	1a1e                	slli	s4,s4,0x27
    1516:	00800003          	lb	zero,8(zero) # 8 <_start-0x7ffffff8>
    151a:	0000                	unimp
    151c:	cf00                	sw	s0,24(a4)
    151e:	0010                	.insn	2, 0x0010
    1520:	1f00                	addi	s0,sp,944
    1522:	5a01                	li	s4,-32
    1524:	5a01f303          	.insn	4, 0x5a01f303
    1528:	0000                	unimp
    152a:	014d                	addi	sp,sp,19
    152c:	c501                	beqz	a0,1534 <_start-0x7fffeacc>
    152e:	0002                	c.slli64	zero
    1530:	bb00                	fsd	fs0,48(a4)
    1532:	0002                	c.slli64	zero
    1534:	0800                	addi	s0,sp,16
    1536:	4d00                	lw	s0,24(a0)
    1538:	0101                	addi	sp,sp,0
    153a:	01be                	slli	gp,gp,0xf
    153c:	0000                	unimp
    153e:	01b4                	addi	a3,sp,200
    1540:	0000                	unimp
    1542:	0008                	.insn	2, 0x0008
	...

Disassembly of section .debug_abbrev:

0000000000000000 <.debug_abbrev>:
   0:	1101                	addi	sp,sp,-32
   2:	2501                	sext.w	a0,a0
   4:	130e                	slli	t1,t1,0x23
   6:	1b0e030b          	.insn	4, 0x1b0e030b
   a:	110e                	slli	sp,sp,0x23
   c:	1201                	addi	tp,tp,-32 # ffffffffffffffe0 <__global_pointer$+0xffffffff7fffe798>
   e:	1001                	c.nop	-32
  10:	0006                	c.slli	zero,0x1
  12:	0200                	addi	s0,sp,256
  14:	0024                	addi	s1,sp,8
  16:	0b3e0b0b          	.insn	4, 0x0b3e0b0b
  1a:	00000e03          	lb	t3,0(zero) # 0 <_start-0x80000000>
  1e:	0b002403          	lw	s0,176(zero) # b0 <_start-0x7fffff50>
  22:	030b3e0b          	.insn	4, 0x030b3e0b
  26:	0008                	.insn	2, 0x0008
  28:	0400                	addi	s0,sp,512
  2a:	0035                	c.nop	13
  2c:	1349                	addi	t1,t1,-14
  2e:	0000                	unimp
  30:	2605                	addiw	a2,a2,1
  32:	4900                	lw	s0,16(a0)
  34:	06000013          	li	zero,96
  38:	0b0b000f          	.insn	4, 0x0b0b000f
  3c:	1349                	addi	t1,t1,-14
  3e:	0000                	unimp
  40:	3f012e07          	flw	ft8,1008(sp)
  44:	030c                	addi	a1,sp,384
  46:	3a0e                	fld	fs4,224(sp)
  48:	390b3b0b          	.insn	4, 0x390b3b0b
  4c:	490c270b          	.insn	4, 0x490c270b
  50:	010c3c13          	sltiu	s8,s8,16
  54:	08000013          	li	zero,128
  58:	0005                	c.nop	1
  5a:	1349                	addi	t1,t1,-14
  5c:	0000                	unimp
  5e:	1809                	addi	a6,a6,-30
  60:	0000                	unimp
  62:	0a00                	addi	s0,sp,272
  64:	012e                	slli	sp,sp,0xb
  66:	0e030c3f 0b3b0b3a 	.insn	8, 0x0b3b0b3a0e030c3f
  6e:	0b39                	addi	s6,s6,14 # a00e <_start-0x7fff5ff2>
  70:	0c3c0c27          	.insn	4, 0x0c3c0c27
  74:	1301                	addi	t1,t1,-32
  76:	0000                	unimp
  78:	3f012e0b          	.insn	4, 0x3f012e0b
  7c:	030c                	addi	a1,sp,384
  7e:	3a0e                	fld	fs4,224(sp)
  80:	390b3b0b          	.insn	4, 0x390b3b0b
  84:	490c270b          	.insn	4, 0x490c270b
  88:	12011113          	.insn	4, 0x12011113
  8c:	4001                	c.li	zero,0
  8e:	9706                	add	a4,a4,ra
  90:	0c42                	slli	s8,s8,0x10
  92:	1301                	addi	t1,t1,-32
  94:	0000                	unimp
  96:	340c                	fld	fa1,40(s0)
  98:	0300                	addi	s0,sp,384
  9a:	3a08                	fld	fa0,48(a2)
  9c:	390b3b0b          	.insn	4, 0x390b3b0b
  a0:	0213490b          	.insn	4, 0x0213490b
  a4:	000a                	c.slli	zero,0x2
  a6:	0d00                	addi	s0,sp,656
  a8:	0034                	addi	a3,sp,8
  aa:	0b3a0e03          	lb	t3,179(s4)
  ae:	0b390b3b          	.insn	4, 0x0b390b3b
  b2:	1349                	addi	t1,t1,-14
  b4:	0000                	unimp
  b6:	1d0e                	slli	s10,s10,0x23
  b8:	3101                	addiw	sp,sp,-32
  ba:	12011113          	.insn	4, 0x12011113
  be:	5801                	li	a6,-32
  c0:	570b590b          	.insn	4, 0x570b590b
  c4:	0013010b          	.insn	4, 0x0013010b
  c8:	0f00                	addi	s0,sp,912
  ca:	0005                	c.nop	1
  cc:	1331                	addi	t1,t1,-20
  ce:	0602                	c.slli64	a2
  d0:	0000                	unimp
  d2:	3410                	fld	fa2,40(s0)
  d4:	3100                	fld	fs0,32(a0)
  d6:	00060213          	mv	tp,a2
  da:	1100                	addi	s0,sp,160
  dc:	8289                	srli	a3,a3,0x2
  de:	0101                	addi	sp,sp,0
  e0:	0111                	addi	sp,sp,4
  e2:	1331                	addi	t1,t1,-20
  e4:	1301                	addi	t1,t1,-32
  e6:	0000                	unimp
  e8:	8a12                	mv	s4,tp
  ea:	0182                	c.slli64	gp
  ec:	0200                	addi	s0,sp,256
  ee:	910a                	add	sp,sp,sp
  f0:	0a42                	slli	s4,s4,0x10
  f2:	0000                	unimp
  f4:	01828913          	addi	s2,t0,24
  f8:	1101                	addi	sp,sp,-32
  fa:	3101                	addiw	sp,sp,-32
  fc:	14000013          	li	zero,320
 100:	0101                	addi	sp,sp,0
 102:	1349                	addi	t1,t1,-14
 104:	1301                	addi	t1,t1,-32
 106:	0000                	unimp
 108:	2115                	addiw	sp,sp,5
 10a:	4900                	lw	s0,16(a0)
 10c:	000b2f13          	slti	t5,s6,0
 110:	1600                	addi	s0,sp,800
 112:	012e                	slli	sp,sp,0xb
 114:	08030c3f 0b3b0b3a 	.insn	8, 0x0b3b0b3a08030c3f
 11c:	0b39                	addi	s6,s6,14
 11e:	13490c27          	.insn	4, 0x13490c27
 122:	0111                	addi	sp,sp,4
 124:	0112                	slli	sp,sp,0x4
 126:	0a40                	addi	s0,sp,276
 128:	010c4297          	auipc	t0,0x10c4
 12c:	17000013          	li	zero,368
 130:	0005                	c.nop	1
 132:	0b3a0803          	lb	a6,179(s4)
 136:	0b390b3b          	.insn	4, 0x0b390b3b
 13a:	1349                	addi	t1,t1,-14
 13c:	0602                	c.slli64	a2
 13e:	0000                	unimp
 140:	3418                	fld	fa4,40(s0)
 142:	0300                	addi	s0,sp,384
 144:	3a0e                	fld	fs4,224(sp)
 146:	390b3b0b          	.insn	4, 0x390b3b0b
 14a:	0213490b          	.insn	4, 0x0213490b
 14e:	0006                	c.slli	zero,0x1
 150:	1900                	addi	s0,sp,176
 152:	0034                	addi	a3,sp,8
 154:	0b3a0803          	lb	a6,179(s4)
 158:	0b390b3b          	.insn	4, 0x0b390b3b
 15c:	1349                	addi	t1,t1,-14
 15e:	0602                	c.slli64	a2
 160:	0000                	unimp
 162:	2e1a                	fld	ft8,384(sp)
 164:	0301                	addi	t1,t1,0
 166:	3a0e                	fld	fs4,224(sp)
 168:	390b3b0b          	.insn	4, 0x390b3b0b
 16c:	490c270b          	.insn	4, 0x490c270b
 170:	010b2013          	slti	zero,s6,16
 174:	1b000013          	li	zero,432
 178:	0005                	c.nop	1
 17a:	0b3a0803          	lb	a6,179(s4)
 17e:	0b390b3b          	.insn	4, 0x0b390b3b
 182:	1349                	addi	t1,t1,-14
 184:	0000                	unimp
 186:	051c                	addi	a5,sp,640
 188:	0300                	addi	s0,sp,384
 18a:	3a0e                	fld	fs4,224(sp)
 18c:	390b3b0b          	.insn	4, 0x390b3b0b
 190:	0013490b          	.insn	4, 0x0013490b
 194:	1d00                	addi	s0,sp,688
 196:	0034                	addi	a3,sp,8
 198:	0b3a0803          	lb	a6,179(s4)
 19c:	0b390b3b          	.insn	4, 0x0b390b3b
 1a0:	1349                	addi	t1,t1,-14
 1a2:	0000                	unimp
 1a4:	0b1e                	slli	s6,s6,0x7
 1a6:	0001                	nop
 1a8:	0000                	unimp
 1aa:	1101                	addi	sp,sp,-32
 1ac:	1000                	addi	s0,sp,32
 1ae:	1106                	slli	sp,sp,0x21
 1b0:	1201                	addi	tp,tp,-32 # ffffffffffffffe0 <__global_pointer$+0xffffffff7fffe798>
 1b2:	0301                	addi	t1,t1,0
 1b4:	1b0e                	slli	s6,s6,0x23
 1b6:	250e                	fld	fa0,192(sp)
 1b8:	130e                	slli	t1,t1,0x23
 1ba:	0005                	c.nop	1
 1bc:	0000                	unimp
 1be:	1101                	addi	sp,sp,-32
 1c0:	2501                	sext.w	a0,a0
 1c2:	130e                	slli	t1,t1,0x23
 1c4:	1b0e030b          	.insn	4, 0x1b0e030b
 1c8:	110e                	slli	sp,sp,0x23
 1ca:	1201                	addi	tp,tp,-32 # ffffffffffffffe0 <__global_pointer$+0xffffffff7fffe798>
 1cc:	1001                	c.nop	-32
 1ce:	0006                	c.slli	zero,0x1
 1d0:	0200                	addi	s0,sp,256
 1d2:	0024                	addi	s1,sp,8
 1d4:	0b3e0b0b          	.insn	4, 0x0b3e0b0b
 1d8:	00000e03          	lb	t3,0(zero) # 0 <_start-0x80000000>
 1dc:	03001603          	lh	a2,48(zero) # 30 <_start-0x7fffffd0>
 1e0:	3a0e                	fld	fs4,224(sp)
 1e2:	390b3b0b          	.insn	4, 0x390b3b0b
 1e6:	0013490b          	.insn	4, 0x0013490b
 1ea:	0400                	addi	s0,sp,512
 1ec:	0024                	addi	s1,sp,8
 1ee:	0b3e0b0b          	.insn	4, 0x0b3e0b0b
 1f2:	00000803          	lb	a6,0(zero) # 0 <_start-0x80000000>
 1f6:	3505                	addiw	a0,a0,-31
 1f8:	4900                	lw	s0,16(a0)
 1fa:	06000013          	li	zero,96
 1fe:	0026                	c.slli	zero,0x9
 200:	1349                	addi	t1,t1,-14
 202:	0000                	unimp
 204:	0b000f07          	.insn	4, 0x0b000f07
 208:	0800000b          	.insn	4, 0x0800000b
 20c:	0b0b000f          	.insn	4, 0x0b0b000f
 210:	00000e03          	lb	t3,0(zero) # 0 <_start-0x80000000>
 214:	0f09                	addi	t5,t5,2
 216:	0b00                	addi	s0,sp,400
 218:	0013490b          	.insn	4, 0x0013490b
 21c:	0a00                	addi	s0,sp,272
 21e:	0034                	addi	a3,sp,8
 220:	0b3a0e03          	lb	t3,179(s4)
 224:	0b390b3b          	.insn	4, 0x0b390b3b
 228:	1349                	addi	t1,t1,-14
 22a:	0c3c0c3f 010b0000 	.insn	8, 0x010b00000c3c0c3f
 232:	4901                	li	s2,0
 234:	00130113          	addi	sp,t1,1
 238:	0c00                	addi	s0,sp,528
 23a:	0021                	c.nop	8
 23c:	1349                	addi	t1,t1,-14
 23e:	00000b2f          	.insn	4, 0x0b2f
 242:	340d                	addiw	s0,s0,-29
 244:	0300                	addi	s0,sp,384
 246:	3a0e                	fld	fs4,224(sp)
 248:	390b3b0b          	.insn	4, 0x390b3b0b
 24c:	0213490b          	.insn	4, 0x0213490b
 250:	000a                	c.slli	zero,0x2
 252:	0e00                	addi	s0,sp,784
 254:	012e                	slli	sp,sp,0xb
 256:	0e030c3f 053b0b3a 	.insn	8, 0x053b0b3a0e030c3f
 25e:	0b39                	addi	s6,s6,14
 260:	13490c27          	.insn	4, 0x13490c27
 264:	0111                	addi	sp,sp,4
 266:	0112                	slli	sp,sp,0x4
 268:	0a40                	addi	s0,sp,276
 26a:	010c4297          	auipc	t0,0x10c4
 26e:	0f000013          	li	zero,240
 272:	0005                	c.nop	1
 274:	0b3a0803          	lb	a6,179(s4)
 278:	0b39053b          	.insn	4, 0x0b39053b
 27c:	1349                	addi	t1,t1,-14
 27e:	0602                	c.slli64	a2
 280:	0000                	unimp
 282:	3410                	fld	fa2,40(s0)
 284:	0300                	addi	s0,sp,384
 286:	3a08                	fld	fa0,48(a2)
 288:	39053b0b          	.insn	4, 0x39053b0b
 28c:	0213490b          	.insn	4, 0x0213490b
 290:	0006                	c.slli	zero,0x1
 292:	1100                	addi	s0,sp,160
 294:	0034                	addi	a3,sp,8
 296:	0b3a0e03          	lb	t3,179(s4)
 29a:	0b39053b          	.insn	4, 0x0b39053b
 29e:	1349                	addi	t1,t1,-14
 2a0:	0602                	c.slli64	a2
 2a2:	0000                	unimp
 2a4:	2e12                	fld	ft8,256(sp)
 2a6:	3f01                	addiw	t5,t5,-32
 2a8:	030c                	addi	a1,sp,384
 2aa:	3a0e                	fld	fs4,224(sp)
 2ac:	390b3b0b          	.insn	4, 0x390b3b0b
 2b0:	490c270b          	.insn	4, 0x490c270b
 2b4:	12011113          	.insn	4, 0x12011113
 2b8:	4001                	c.li	zero,0
 2ba:	970a                	add	a4,a4,sp
 2bc:	0c42                	slli	s8,s8,0x10
 2be:	1301                	addi	t1,t1,-32
 2c0:	0000                	unimp
 2c2:	03000513          	li	a0,48
 2c6:	3a0e                	fld	fs4,224(sp)
 2c8:	39053b0b          	.insn	4, 0x39053b0b
 2cc:	0213490b          	.insn	4, 0x0213490b
 2d0:	000a                	c.slli	zero,0x2
 2d2:	1400                	addi	s0,sp,544
 2d4:	0034                	addi	a3,sp,8
 2d6:	0b3a0803          	lb	a6,179(s4)
 2da:	0b39053b          	.insn	4, 0x0b39053b
 2de:	1349                	addi	t1,t1,-14
 2e0:	0a02                	c.slli64	s4
 2e2:	0000                	unimp
 2e4:	0515                	addi	a0,a0,5
 2e6:	0300                	addi	s0,sp,384
 2e8:	3a0e                	fld	fs4,224(sp)
 2ea:	39053b0b          	.insn	4, 0x39053b0b
 2ee:	0213490b          	.insn	4, 0x0213490b
 2f2:	0006                	c.slli	zero,0x1
 2f4:	1600                	addi	s0,sp,800
 2f6:	0111010b          	.insn	4, 0x0111010b
 2fa:	0112                	slli	sp,sp,0x4
 2fc:	1301                	addi	t1,t1,-32
 2fe:	0000                	unimp
 300:	11010b17          	auipc	s6,0x11010
 304:	1201                	addi	tp,tp,-32 # ffffffffffffffe0 <__global_pointer$+0xffffffff7fffe798>
 306:	0001                	nop
 308:	1800                	addi	s0,sp,48
 30a:	0026                	c.slli	zero,0x9
 30c:	0000                	unimp
 30e:	2e19                	addiw	t3,t3,6 # 2c36e <_start-0x7ffd3c92>
 310:	3f01                	addiw	t5,t5,-32
 312:	030c                	addi	a1,sp,384
 314:	3a0e                	fld	fs4,224(sp)
 316:	390b3b0b          	.insn	4, 0x390b3b0b
 31a:	490c270b          	.insn	4, 0x490c270b
 31e:	12011113          	.insn	4, 0x12011113
 322:	4001                	c.li	zero,0
 324:	9706                	add	a4,a4,ra
 326:	0c42                	slli	s8,s8,0x10
 328:	1301                	addi	t1,t1,-32
 32a:	0000                	unimp
 32c:	181a                	slli	a6,a6,0x26
 32e:	0000                	unimp
 330:	1b00                	addi	s0,sp,432
 332:	012e                	slli	sp,sp,0xb
 334:	0b3a0e03          	lb	t3,179(s4)
 338:	0b39053b          	.insn	4, 0x0b39053b
 33c:	01110c27          	.insn	4, 0x01110c27
 340:	0112                	slli	sp,sp,0x4
 342:	0a40                	addi	s0,sp,276
 344:	010c4297          	auipc	t0,0x10c4
 348:	1c000013          	li	zero,448
 34c:	0005                	c.nop	1
 34e:	0b3a0803          	lb	a6,179(s4)
 352:	0b39053b          	.insn	4, 0x0b39053b
 356:	1349                	addi	t1,t1,-14
 358:	0a02                	c.slli64	s4
 35a:	0000                	unimp
 35c:	341d                	addiw	s0,s0,-25
 35e:	0300                	addi	s0,sp,384
 360:	3a0e                	fld	fs4,224(sp)
 362:	39053b0b          	.insn	4, 0x39053b0b
 366:	0213490b          	.insn	4, 0x0213490b
 36a:	000a                	c.slli	zero,0x2
 36c:	1e00                	addi	s0,sp,816
 36e:	8289                	srli	a3,a3,0x2
 370:	0101                	addi	sp,sp,0
 372:	0111                	addi	sp,sp,4
 374:	1331                	addi	t1,t1,-20
 376:	0000                	unimp
 378:	8a1f 0182 0200      	.insn	6, 0x020001828a1f
 37e:	910a                	add	sp,sp,sp
 380:	0a42                	slli	s4,s4,0x10
 382:	0000                	unimp
 384:	2e20                	fld	fs0,88(a2)
 386:	0301                	addi	t1,t1,0
 388:	3a0e                	fld	fs4,224(sp)
 38a:	390b3b0b          	.insn	4, 0x390b3b0b
 38e:	110c270b          	.insn	4, 0x110c270b
 392:	1201                	addi	tp,tp,-32 # ffffffffffffffe0 <__global_pointer$+0xffffffff7fffe798>
 394:	4001                	c.li	zero,0
 396:	9706                	add	a4,a4,ra
 398:	0c42                	slli	s8,s8,0x10
 39a:	1301                	addi	t1,t1,-32
 39c:	0000                	unimp
 39e:	0521                	addi	a0,a0,8
 3a0:	0300                	addi	s0,sp,384
 3a2:	3a0e                	fld	fs4,224(sp)
 3a4:	390b3b0b          	.insn	4, 0x390b3b0b
 3a8:	0213490b          	.insn	4, 0x0213490b
 3ac:	0006                	c.slli	zero,0x1
 3ae:	2200                	fld	fs0,0(a2)
 3b0:	0005                	c.nop	1
 3b2:	0b3a0803          	lb	a6,179(s4)
 3b6:	0b390b3b          	.insn	4, 0x0b390b3b
 3ba:	1349                	addi	t1,t1,-14
 3bc:	0602                	c.slli64	a2
 3be:	0000                	unimp
 3c0:	03003423          	sd	a6,40(zero) # 28 <_start-0x7fffffd8>
 3c4:	3a08                	fld	fa0,48(a2)
 3c6:	390b3b0b          	.insn	4, 0x390b3b0b
 3ca:	0213490b          	.insn	4, 0x0213490b
 3ce:	0006                	c.slli	zero,0x1
 3d0:	2400                	fld	fs0,8(s0)
 3d2:	0034                	addi	a3,sp,8
 3d4:	0b3a0803          	lb	a6,179(s4)
 3d8:	0b39053b          	.insn	4, 0x0b39053b
 3dc:	1349                	addi	t1,t1,-14
 3de:	0000                	unimp
 3e0:	0a25                	addi	s4,s4,9
 3e2:	0300                	addi	s0,sp,384
 3e4:	3a0e                	fld	fs4,224(sp)
 3e6:	39053b0b          	.insn	4, 0x39053b0b
 3ea:	2600000b          	.insn	4, 0x2600000b
 3ee:	000a                	c.slli	zero,0x2
 3f0:	0b3a0e03          	lb	t3,179(s4)
 3f4:	0b39053b          	.insn	4, 0x0b39053b
 3f8:	0111                	addi	sp,sp,4
 3fa:	0000                	unimp
 3fc:	31011d27          	.insn	4, 0x31011d27
 400:	55015213          	.insn	4, 0x55015213
 404:	5806                	lw	a6,96(sp)
 406:	5705590b          	.insn	4, 0x5705590b
 40a:	0013010b          	.insn	4, 0x0013010b
 40e:	2800                	fld	fs0,16(s0)
 410:	0005                	c.nop	1
 412:	1331                	addi	t1,t1,-20
 414:	0602                	c.slli64	a2
 416:	0000                	unimp
 418:	0b29                	addi	s6,s6,10 # 1101030a <_start-0x6efefcf6>
 41a:	5501                	li	a0,-32
 41c:	0006                	c.slli	zero,0x1
 41e:	2a00                	fld	fs0,16(a2)
 420:	0034                	addi	a3,sp,8
 422:	1331                	addi	t1,t1,-20
 424:	0a02                	c.slli64	s4
 426:	0000                	unimp
 428:	3100342b          	.insn	4, 0x3100342b
 42c:	00060213          	mv	tp,a2
 430:	2c00                	fld	fs0,24(s0)
 432:	8289                	srli	a3,a3,0x2
 434:	0101                	addi	sp,sp,0
 436:	0111                	addi	sp,sp,4
 438:	1301                	addi	t1,t1,-32
 43a:	0000                	unimp
 43c:	892d                	andi	a0,a0,11
 43e:	0182                	c.slli64	gp
 440:	1101                	addi	sp,sp,-32
 442:	0001                	nop
 444:	2e00                	fld	fs0,24(a2)
 446:	8289                	srli	a3,a3,0x2
 448:	0101                	addi	sp,sp,0
 44a:	0111                	addi	sp,sp,4
 44c:	1331                	addi	t1,t1,-20
 44e:	1301                	addi	t1,t1,-32
 450:	0000                	unimp
 452:	2701152f          	.insn	4, 0x2701152f
 456:	010c                	addi	a1,sp,128
 458:	30000013          	li	zero,768
 45c:	0005                	c.nop	1
 45e:	1349                	addi	t1,t1,-14
 460:	0000                	unimp
 462:	2e31                	addiw	t3,t3,12
 464:	0301                	addi	t1,t1,0
 466:	3a0e                	fld	fs4,224(sp)
 468:	390b3b0b          	.insn	4, 0x390b3b0b
 46c:	490c270b          	.insn	4, 0x490c270b
 470:	010b2013          	slti	zero,s6,16
 474:	32000013          	li	zero,800
 478:	0005                	c.nop	1
 47a:	0b3a0803          	lb	a6,179(s4)
 47e:	0b390b3b          	.insn	4, 0x0b390b3b
 482:	1349                	addi	t1,t1,-14
 484:	0000                	unimp
 486:	03000533          	mul	a0,zero,a6
 48a:	3a0e                	fld	fs4,224(sp)
 48c:	390b3b0b          	.insn	4, 0x390b3b0b
 490:	0013490b          	.insn	4, 0x0013490b
 494:	3400                	fld	fs0,40(s0)
 496:	012e                	slli	sp,sp,0xb
 498:	0b3a0e03          	lb	t3,179(s4)
 49c:	0b390b3b          	.insn	4, 0x0b390b3b
 4a0:	0b200c27          	.insn	4, 0x0b200c27
 4a4:	1301                	addi	t1,t1,-32
 4a6:	0000                	unimp
 4a8:	3435                	addiw	s0,s0,-19
 4aa:	0300                	addi	s0,sp,384
 4ac:	3a0e                	fld	fs4,224(sp)
 4ae:	390b3b0b          	.insn	4, 0x390b3b0b
 4b2:	0013490b          	.insn	4, 0x0013490b
 4b6:	3600                	fld	fs0,40(a2)
 4b8:	0034                	addi	a3,sp,8
 4ba:	0b3a0803          	lb	a6,179(s4)
 4be:	0b390b3b          	.insn	4, 0x0b390b3b
 4c2:	1349                	addi	t1,t1,-14
 4c4:	0000                	unimp
 4c6:	3f012e37          	lui	t3,0x3f012
 4ca:	030c                	addi	a1,sp,384
 4cc:	3a0e                	fld	fs4,224(sp)
 4ce:	390b3b0b          	.insn	4, 0x390b3b0b
 4d2:	110c270b          	.insn	4, 0x110c270b
 4d6:	1201                	addi	tp,tp,-32 # ffffffffffffffe0 <__global_pointer$+0xffffffff7fffe798>
 4d8:	4001                	c.li	zero,0
 4da:	9706                	add	a4,a4,ra
 4dc:	0c42                	slli	s8,s8,0x10
 4de:	1301                	addi	t1,t1,-32
 4e0:	0000                	unimp
 4e2:	3438                	fld	fa4,104(s0)
 4e4:	0300                	addi	s0,sp,384
 4e6:	3a08                	fld	fa0,48(a2)
 4e8:	390b3b0b          	.insn	4, 0x390b3b0b
 4ec:	0213490b          	.insn	4, 0x0213490b
 4f0:	000a                	c.slli	zero,0x2
 4f2:	3900                	fld	fs0,48(a0)
 4f4:	011d                	addi	sp,sp,7
 4f6:	1331                	addi	t1,t1,-20
 4f8:	0111                	addi	sp,sp,4
 4fa:	0112                	slli	sp,sp,0x4
 4fc:	0b58                	addi	a4,sp,404
 4fe:	0b59                	addi	s6,s6,22
 500:	00000b57          	.insn	4, 0x0b57
 504:	343a                	fld	fs0,424(sp)
 506:	0300                	addi	s0,sp,384
 508:	3a08                	fld	fa0,48(a2)
 50a:	390b3b0b          	.insn	4, 0x390b3b0b
 50e:	8813490b          	.insn	4, 0x8813490b
 512:	0b01                	addi	s6,s6,0
 514:	0a02                	c.slli64	s4
 516:	0000                	unimp
 518:	0300343b          	.insn	4, 0x0300343b
 51c:	3a0e                	fld	fs4,224(sp)
 51e:	390b3b0b          	.insn	4, 0x390b3b0b
 522:	0213490b          	.insn	4, 0x0213490b
 526:	0006                	c.slli	zero,0x1
 528:	3c00                	fld	fs0,56(s0)
 52a:	0655010b          	.insn	4, 0x0655010b
 52e:	1301                	addi	t1,t1,-32
 530:	0000                	unimp
 532:	1d3d                	addi	s10,s10,-17
 534:	3101                	addiw	sp,sp,-32
 536:	12011113          	.insn	4, 0x12011113
 53a:	5801                	li	a6,-32
 53c:	570b590b          	.insn	4, 0x570b590b
 540:	0013010b          	.insn	4, 0x0013010b
 544:	3e00                	fld	fs0,56(a2)
 546:	0034                	addi	a3,sp,8
 548:	1331                	addi	t1,t1,-20
 54a:	0c3c                	addi	a5,sp,536
 54c:	0000                	unimp
 54e:	3100343f 00061c13 	.insn	8, 0x00061c133100343f
 556:	4000                	lw	s0,0(s0)
 558:	012e                	slli	sp,sp,0xb
 55a:	0b3a0e03          	lb	t3,179(s4)
 55e:	0b390b3b          	.insn	4, 0x0b390b3b
 562:	0b20                	addi	s0,sp,408
 564:	1301                	addi	t1,t1,-32
 566:	0000                	unimp
 568:	2e41                	addiw	t3,t3,16 # 3f012010 <_start-0x40fedff0>
 56a:	3f01                	addiw	t5,t5,-32
 56c:	030c                	addi	a1,sp,384
 56e:	3a0e                	fld	fs4,224(sp)
 570:	390b3b0b          	.insn	4, 0x390b3b0b
 574:	110c270b          	.insn	4, 0x110c270b
 578:	1201                	addi	tp,tp,-32 # ffffffffffffffe0 <__global_pointer$+0xffffffff7fffe798>
 57a:	4001                	c.li	zero,0
 57c:	970a                	add	a4,a4,sp
 57e:	0c42                	slli	s8,s8,0x10
 580:	1301                	addi	t1,t1,-32
 582:	0000                	unimp
 584:	0542                	slli	a0,a0,0x10
 586:	0300                	addi	s0,sp,384
 588:	3a08                	fld	fa0,48(a2)
 58a:	390b3b0b          	.insn	4, 0x390b3b0b
 58e:	0213490b          	.insn	4, 0x0213490b
 592:	000a                	c.slli	zero,0x2
 594:	4300                	lw	s0,0(a4)
 596:	012e                	slli	sp,sp,0xb
 598:	0e030c3f 0b3b0b3a 	.insn	8, 0x0b3b0b3a0e030c3f
 5a0:	0b39                	addi	s6,s6,14
 5a2:	0b200c27          	.insn	4, 0x0b200c27
 5a6:	1301                	addi	t1,t1,-32
 5a8:	0000                	unimp
 5aa:	2e44                	fld	fs1,152(a2)
 5ac:	3f01                	addiw	t5,t5,-32
 5ae:	030c                	addi	a1,sp,384
 5b0:	3a0e                	fld	fs4,224(sp)
 5b2:	390b3b0b          	.insn	4, 0x390b3b0b
 5b6:	1201110b          	.insn	4, 0x1201110b
 5ba:	4001                	c.li	zero,0
 5bc:	9706                	add	a4,a4,ra
 5be:	0c42                	slli	s8,s8,0x10
 5c0:	1301                	addi	t1,t1,-32
 5c2:	0000                	unimp
 5c4:	0545                	addi	a0,a0,17
 5c6:	3100                	fld	fs0,32(a0)
 5c8:	000b1c13          	slli	s8,s6,0x0
 5cc:	4600                	lw	s0,8(a2)
 5ce:	012e                	slli	sp,sp,0xb
 5d0:	0e030c3f 0b3b0b3a 	.insn	8, 0x0b3b0b3a0e030c3f
 5d8:	0b39                	addi	s6,s6,14
 5da:	01870c27          	.insn	4, 0x01870c27
 5de:	200c                	fld	fa1,0(s0)
 5e0:	0013010b          	.insn	4, 0x0013010b
 5e4:	4700                	lw	s0,8(a4)
 5e6:	012e                	slli	sp,sp,0xb
 5e8:	0e030c3f 0b3b0b3a 	.insn	8, 0x0b3b0b3a0e030c3f
 5f0:	0b39                	addi	s6,s6,14
 5f2:	01870c27          	.insn	4, 0x01870c27
 5f6:	110c                	addi	a1,sp,160
 5f8:	1201                	addi	tp,tp,-32 # ffffffffffffffe0 <__global_pointer$+0xffffffff7fffe798>
 5fa:	4001                	c.li	zero,0
 5fc:	970a                	add	a4,a4,sp
 5fe:	0c42                	slli	s8,s8,0x10
 600:	1301                	addi	t1,t1,-32
 602:	0000                	unimp
 604:	0548                	addi	a0,sp,644
 606:	0300                	addi	s0,sp,384
 608:	3a0e                	fld	fs4,224(sp)
 60a:	390b3b0b          	.insn	4, 0x390b3b0b
 60e:	0213490b          	.insn	4, 0x0213490b
 612:	000a                	c.slli	zero,0x2
 614:	4900                	lw	s0,16(a0)
 616:	8289                	srli	a3,a3,0x2
 618:	0001                	nop
 61a:	0111                	addi	sp,sp,4
 61c:	1331                	addi	t1,t1,-20
 61e:	0000                	unimp
 620:	344a                	fld	fs0,176(sp)
 622:	0300                	addi	s0,sp,384
 624:	3a0e                	fld	fs4,224(sp)
 626:	390b3b0b          	.insn	4, 0x390b3b0b
 62a:	1c13490b          	.insn	4, 0x1c13490b
 62e:	0006                	c.slli	zero,0x1
 630:	4b00                	lw	s0,16(a4)
 632:	012e                	slli	sp,sp,0xb
 634:	1331                	addi	t1,t1,-20
 636:	0111                	addi	sp,sp,4
 638:	0112                	slli	sp,sp,0x4
 63a:	0a40                	addi	s0,sp,276
 63c:	010c4297          	auipc	t0,0x10c4
 640:	4c000013          	li	zero,1216
 644:	012e                	slli	sp,sp,0xb
 646:	1331                	addi	t1,t1,-20
 648:	0111                	addi	sp,sp,4
 64a:	0112                	slli	sp,sp,0x4
 64c:	0640                	addi	s0,sp,772
 64e:	010c4297          	auipc	t0,0x10c4
 652:	4d000013          	li	zero,1232
 656:	002e                	c.slli	zero,0xb
 658:	0c3c0c3f 030e4087 	.insn	8, 0x030e40870c3c0c3f
 660:	3a0e                	fld	fs4,224(sp)
 662:	000b3b0b          	.insn	4, 0x000b3b0b
	...

Disassembly of section .debug_loc:

0000000000000000 <.debug_loc>:
       0:	001a                	c.slli	zero,0x6
       2:	0000                	unimp
       4:	0000                	unimp
       6:	0000                	unimp
       8:	001c                	.insn	2, 0x001c
       a:	0000                	unimp
       c:	0000                	unimp
       e:	0000                	unimp
      10:	0002                	c.slli64	zero
      12:	0072                	c.slli	zero,0x1c
      14:	001c                	.insn	2, 0x001c
      16:	0000                	unimp
      18:	0000                	unimp
      1a:	0000                	unimp
      1c:	0054                	addi	a3,sp,4
      1e:	0000                	unimp
      20:	0000                	unimp
      22:	0000                	unimp
      24:	0002                	c.slli64	zero
      26:	2072                	fld	ft0,280(sp)
      28:	0054                	addi	a3,sp,4
      2a:	0000                	unimp
      2c:	0000                	unimp
      2e:	0000                	unimp
      30:	0056                	c.slli	zero,0x15
      32:	0000                	unimp
      34:	0000                	unimp
      36:	0000                	unimp
      38:	0002                	c.slli64	zero
      3a:	0072                	c.slli	zero,0x1c
	...
      4c:	0046                	c.slli	zero,0x11
      4e:	0000                	unimp
      50:	0000                	unimp
      52:	0000                	unimp
      54:	0048                	addi	a0,sp,4
      56:	0000                	unimp
      58:	0000                	unimp
      5a:	0000                	unimp
      5c:	0002                	c.slli64	zero
      5e:	9f31                	addw	a4,a4,a2
	...
      70:	0046                	c.slli	zero,0x11
      72:	0000                	unimp
      74:	0000                	unimp
      76:	0000                	unimp
      78:	0048                	addi	a0,sp,4
      7a:	0000                	unimp
      7c:	0000                	unimp
      7e:	0000                	unimp
      80:	68910003          	lb	zero,1673(sp)
      84:	009f 0000 0000      	.insn	6, 0x009f
	...
      92:	0000                	unimp
      94:	4600                	lw	s0,8(a2)
      96:	0000                	unimp
      98:	0000                	unimp
      9a:	0000                	unimp
      9c:	4800                	lw	s0,16(s0)
      9e:	0000                	unimp
      a0:	0000                	unimp
      a2:	0000                	unimp
      a4:	0a00                	addi	s0,sp,272
      a6:	f200                	sd	s0,32(a2)
      a8:	00fe                	slli	ra,ra,0x1f
	...
      be:	0000                	unimp
      c0:	4600                	lw	s0,8(a2)
      c2:	0000                	unimp
      c4:	0000                	unimp
      c6:	0000                	unimp
      c8:	4800                	lw	s0,16(s0)
      ca:	0000                	unimp
      cc:	0000                	unimp
      ce:	0000                	unimp
      d0:	0200                	addi	s0,sp,256
      d2:	3000                	fld	fs0,32(s0)
      d4:	009f 0000 0000      	.insn	6, 0x009f
	...
      ea:	0000                	unimp
      ec:	0c00                	addi	s0,sp,528
      ee:	0000                	unimp
      f0:	0000                	unimp
      f2:	0000                	unimp
      f4:	0100                	addi	s0,sp,128
      f6:	5a00                	lw	s0,48(a2)
      f8:	000c                	.insn	2, 0x000c
      fa:	0000                	unimp
      fc:	0000                	unimp
      fe:	0000                	unimp
     100:	0016                	c.slli	zero,0x5
     102:	0000                	unimp
     104:	0000                	unimp
     106:	0000                	unimp
     108:	7f7e0003          	lb	zero,2039(t3)
     10c:	169f 0000 0000      	.insn	6, 0x169f
     112:	0000                	unimp
     114:	1800                	addi	s0,sp,48
     116:	0000                	unimp
     118:	0000                	unimp
     11a:	0000                	unimp
     11c:	0100                	addi	s0,sp,128
     11e:	5a00                	lw	s0,48(a2)
     120:	0018                	.insn	2, 0x0018
     122:	0000                	unimp
     124:	0000                	unimp
     126:	0000                	unimp
     128:	001a                	c.slli	zero,0x6
     12a:	0000                	unimp
     12c:	0000                	unimp
     12e:	0000                	unimp
     130:	0004                	.insn	2, 0x0004
     132:	9f5a01f3          	.insn	4, 0x9f5a01f3
	...
     14e:	000c                	.insn	2, 0x000c
     150:	0000                	unimp
     152:	0000                	unimp
     154:	0000                	unimp
     156:	0002                	c.slli64	zero
     158:	9f30                	.insn	2, 0x9f30
     15a:	000c                	.insn	2, 0x000c
     15c:	0000                	unimp
     15e:	0000                	unimp
     160:	0000                	unimp
     162:	0016                	c.slli	zero,0x5
     164:	0000                	unimp
     166:	0000                	unimp
     168:	0000                	unimp
     16a:	0001                	nop
     16c:	165a                	slli	a2,a2,0x36
     16e:	0000                	unimp
     170:	0000                	unimp
     172:	0000                	unimp
     174:	1a00                	addi	s0,sp,304
     176:	0000                	unimp
     178:	0000                	unimp
     17a:	0000                	unimp
     17c:	0200                	addi	s0,sp,256
     17e:	3000                	fld	fs0,32(s0)
     180:	009f 0000 0000      	.insn	6, 0x009f
	...
     196:	0000                	unimp
     198:	0c00                	addi	s0,sp,528
     19a:	0000                	unimp
     19c:	0000                	unimp
     19e:	0000                	unimp
     1a0:	0200                	addi	s0,sp,256
     1a2:	3100                	fld	fs0,32(a0)
     1a4:	0c9f 0000 0000      	.insn	6, 0x0c9f
     1aa:	0000                	unimp
     1ac:	1600                	addi	s0,sp,800
     1ae:	0000                	unimp
     1b0:	0000                	unimp
     1b2:	0000                	unimp
     1b4:	0100                	addi	s0,sp,128
     1b6:	5f00                	lw	s0,56(a4)
     1b8:	0016                	c.slli	zero,0x5
     1ba:	0000                	unimp
     1bc:	0000                	unimp
     1be:	0000                	unimp
     1c0:	001a                	c.slli	zero,0x6
     1c2:	0000                	unimp
     1c4:	0000                	unimp
     1c6:	0000                	unimp
     1c8:	0002                	c.slli64	zero
     1ca:	9f31                	addw	a4,a4,a2
	...
     1dc:	065a                	slli	a2,a2,0x16
     1de:	0000                	unimp
     1e0:	0000                	unimp
     1e2:	0000                	unimp
     1e4:	0668                	addi	a0,sp,780
     1e6:	0000                	unimp
     1e8:	0000                	unimp
     1ea:	0000                	unimp
     1ec:	0001                	nop
     1ee:	685a                	ld	a6,400(sp)
     1f0:	0006                	c.slli	zero,0x1
     1f2:	0000                	unimp
     1f4:	0000                	unimp
     1f6:	8600                	.insn	2, 0x8600
     1f8:	0006                	c.slli	zero,0x1
     1fa:	0000                	unimp
     1fc:	0000                	unimp
     1fe:	0100                	addi	s0,sp,128
     200:	5a00                	lw	s0,48(a2)
     202:	0686                	slli	a3,a3,0x1
     204:	0000                	unimp
     206:	0000                	unimp
     208:	0000                	unimp
     20a:	0688                	addi	a0,sp,832
     20c:	0000                	unimp
     20e:	0000                	unimp
     210:	0000                	unimp
     212:	0001                	nop
     214:	885d                	andi	s0,s0,23
     216:	0006                	c.slli	zero,0x1
     218:	0000                	unimp
     21a:	0000                	unimp
     21c:	9400                	.insn	2, 0x9400
     21e:	0006                	c.slli	zero,0x1
     220:	0000                	unimp
     222:	0000                	unimp
     224:	0100                	addi	s0,sp,128
     226:	5a00                	lw	s0,48(a2)
     228:	0694                	addi	a3,sp,832
     22a:	0000                	unimp
     22c:	0000                	unimp
     22e:	0000                	unimp
     230:	06c0                	addi	s0,sp,836
     232:	0000                	unimp
     234:	0000                	unimp
     236:	0000                	unimp
     238:	0001                	nop
     23a:	005d                	c.nop	23
	...
     248:	0000                	unimp
     24a:	5a00                	lw	s0,48(a2)
     24c:	0006                	c.slli	zero,0x1
     24e:	0000                	unimp
     250:	0000                	unimp
     252:	8600                	.insn	2, 0x8600
     254:	0006                	c.slli	zero,0x1
     256:	0000                	unimp
     258:	0000                	unimp
     25a:	0200                	addi	s0,sp,256
     25c:	3000                	fld	fs0,32(s0)
     25e:	889f 0006 0000      	.insn	6, 0x0006889f
     264:	0000                	unimp
     266:	9c00                	.insn	2, 0x9c00
     268:	0006                	c.slli	zero,0x1
     26a:	0000                	unimp
     26c:	0000                	unimp
     26e:	0200                	addi	s0,sp,256
     270:	3000                	fld	fs0,32(s0)
     272:	9c9f 0006 0000      	.insn	6, 0x00069c9f
     278:	0000                	unimp
     27a:	a400                	fsd	fs0,8(s0)
     27c:	0006                	c.slli	zero,0x1
     27e:	0000                	unimp
     280:	0000                	unimp
     282:	0100                	addi	s0,sp,128
     284:	5a00                	lw	s0,48(a2)
     286:	06a4                	addi	s1,sp,840
     288:	0000                	unimp
     28a:	0000                	unimp
     28c:	0000                	unimp
     28e:	06ae                	slli	a3,a3,0xb
     290:	0000                	unimp
     292:	0000                	unimp
     294:	0000                	unimp
     296:	0001                	nop
     298:	ae5f 0006 0000      	.insn	6, 0x0006ae5f
     29e:	0000                	unimp
     2a0:	b400                	fsd	fs0,40(s0)
     2a2:	0006                	c.slli	zero,0x1
     2a4:	0000                	unimp
     2a6:	0000                	unimp
     2a8:	0100                	addi	s0,sp,128
     2aa:	5a00                	lw	s0,48(a2)
     2ac:	06bc                	addi	a5,sp,840
     2ae:	0000                	unimp
     2b0:	0000                	unimp
     2b2:	0000                	unimp
     2b4:	06c0                	addi	s0,sp,836
     2b6:	0000                	unimp
     2b8:	0000                	unimp
     2ba:	0000                	unimp
     2bc:	0002                	c.slli64	zero
     2be:	9f30                	.insn	2, 0x9f30
	...
     2d0:	065a                	slli	a2,a2,0x16
     2d2:	0000                	unimp
     2d4:	0000                	unimp
     2d6:	0000                	unimp
     2d8:	0686                	slli	a3,a3,0x1
     2da:	0000                	unimp
     2dc:	0000                	unimp
     2de:	0000                	unimp
     2e0:	0002                	c.slli64	zero
     2e2:	9f30                	.insn	2, 0x9f30
     2e4:	0688                	addi	a0,sp,832
     2e6:	0000                	unimp
     2e8:	0000                	unimp
     2ea:	0000                	unimp
     2ec:	0690                	addi	a2,sp,832
     2ee:	0000                	unimp
     2f0:	0000                	unimp
     2f2:	0000                	unimp
     2f4:	0002                	c.slli64	zero
     2f6:	9f30                	.insn	2, 0x9f30
     2f8:	0690                	addi	a2,sp,832
     2fa:	0000                	unimp
     2fc:	0000                	unimp
     2fe:	0000                	unimp
     300:	069a                	slli	a3,a3,0x6
     302:	0000                	unimp
     304:	0000                	unimp
     306:	0000                	unimp
     308:	0005                	c.nop	1
     30a:	007f 2930 9c9f 0006 	.insn	10, 0x00069c9f2930007f
     312:	0000 
     314:	0000                	unimp
     316:	b400                	fsd	fs0,40(s0)
     318:	0006                	c.slli	zero,0x1
     31a:	0000                	unimp
     31c:	0000                	unimp
     31e:	0100                	addi	s0,sp,128
     320:	5c00                	lw	s0,56(s0)
     322:	06bc                	addi	a5,sp,840
     324:	0000                	unimp
     326:	0000                	unimp
     328:	0000                	unimp
     32a:	06c0                	addi	s0,sp,836
     32c:	0000                	unimp
     32e:	0000                	unimp
     330:	0000                	unimp
     332:	0005                	c.nop	1
     334:	007f 2930 009f 0000 	.insn	10, 0x009f2930007f
     33c:	0000 
	...
     346:	0000                	unimp
     348:	4800                	lw	s0,16(s0)
     34a:	0006                	c.slli	zero,0x1
     34c:	0000                	unimp
     34e:	0000                	unimp
     350:	4c00                	lw	s0,24(s0)
     352:	0006                	c.slli	zero,0x1
     354:	0000                	unimp
     356:	0000                	unimp
     358:	0100                	addi	s0,sp,128
     35a:	5b00                	lw	s0,48(a4)
     35c:	064c                	addi	a1,sp,772
     35e:	0000                	unimp
     360:	0000                	unimp
     362:	0000                	unimp
     364:	065a                	slli	a2,a2,0x16
     366:	0000                	unimp
     368:	0000                	unimp
     36a:	0000                	unimp
     36c:	0001                	nop
     36e:	0000005b          	.insn	4, 0x005b
	...
     37e:	4800                	lw	s0,16(s0)
     380:	0006                	c.slli	zero,0x1
     382:	0000                	unimp
     384:	0000                	unimp
     386:	4a00                	lw	s0,16(a2)
     388:	0006                	c.slli	zero,0x1
     38a:	0000                	unimp
     38c:	0000                	unimp
     38e:	0100                	addi	s0,sp,128
     390:	5a00                	lw	s0,48(a2)
     392:	064a                	slli	a2,a2,0x12
     394:	0000                	unimp
     396:	0000                	unimp
     398:	0000                	unimp
     39a:	065a                	slli	a2,a2,0x16
     39c:	0000                	unimp
     39e:	0000                	unimp
     3a0:	0000                	unimp
     3a2:	0001                	nop
     3a4:	005f 0000 0000      	.insn	6, 0x005f
	...
     3b2:	0000                	unimp
     3b4:	3000                	fld	fs0,32(s0)
     3b6:	0006                	c.slli	zero,0x1
     3b8:	0000                	unimp
     3ba:	0000                	unimp
     3bc:	3000                	fld	fs0,32(s0)
     3be:	0006                	c.slli	zero,0x1
     3c0:	0000                	unimp
     3c2:	0000                	unimp
     3c4:	0100                	addi	s0,sp,128
     3c6:	5a00                	lw	s0,48(a2)
     3c8:	0630                	addi	a2,sp,776
     3ca:	0000                	unimp
     3cc:	0000                	unimp
     3ce:	0000                	unimp
     3d0:	0632                	slli	a2,a2,0xc
     3d2:	0000                	unimp
     3d4:	0000                	unimp
     3d6:	0000                	unimp
     3d8:	0004                	.insn	2, 0x0004
     3da:	9f5a01f3          	.insn	4, 0x9f5a01f3
     3de:	0632                	slli	a2,a2,0xc
     3e0:	0000                	unimp
     3e2:	0000                	unimp
     3e4:	0000                	unimp
     3e6:	0646                	slli	a2,a2,0x11
     3e8:	0000                	unimp
     3ea:	0000                	unimp
     3ec:	0000                	unimp
     3ee:	0001                	nop
     3f0:	465a                	lw	a2,148(sp)
     3f2:	0006                	c.slli	zero,0x1
     3f4:	0000                	unimp
     3f6:	0000                	unimp
     3f8:	4800                	lw	s0,16(s0)
     3fa:	0006                	c.slli	zero,0x1
     3fc:	0000                	unimp
     3fe:	0000                	unimp
     400:	0600                	addi	s0,sp,768
     402:	f300                	sd	s0,32(a4)
     404:	5a01                	li	s4,-32
     406:	009f0123          	sb	s1,2(t5)
	...
     416:	0000                	unimp
     418:	3000                	fld	fs0,32(s0)
     41a:	0006                	c.slli	zero,0x1
     41c:	0000                	unimp
     41e:	0000                	unimp
     420:	3000                	fld	fs0,32(s0)
     422:	0006                	c.slli	zero,0x1
     424:	0000                	unimp
     426:	0000                	unimp
     428:	0100                	addi	s0,sp,128
     42a:	5b00                	lw	s0,48(a4)
     42c:	0630                	addi	a2,sp,776
     42e:	0000                	unimp
     430:	0000                	unimp
     432:	0000                	unimp
     434:	0638                	addi	a4,sp,776
     436:	0000                	unimp
     438:	0000                	unimp
     43a:	0000                	unimp
     43c:	0004                	.insn	2, 0x0004
     43e:	9f5b01f3          	.insn	4, 0x9f5b01f3
     442:	0638                	addi	a4,sp,776
     444:	0000                	unimp
     446:	0000                	unimp
     448:	0000                	unimp
     44a:	0648                	addi	a0,sp,772
     44c:	0000                	unimp
     44e:	0000                	unimp
     450:	0000                	unimp
     452:	0001                	nop
     454:	0000005b          	.insn	4, 0x005b
	...
     464:	2400                	fld	fs0,8(s0)
     466:	0002                	c.slli64	zero
     468:	0000                	unimp
     46a:	0000                	unimp
     46c:	3c00                	fld	fs0,56(s0)
     46e:	0002                	c.slli64	zero
     470:	0000                	unimp
     472:	0000                	unimp
     474:	0100                	addi	s0,sp,128
     476:	5a00                	lw	s0,48(a2)
     478:	023c                	addi	a5,sp,264
     47a:	0000                	unimp
     47c:	0000                	unimp
     47e:	0000                	unimp
     480:	023e                	slli	tp,tp,0xf
     482:	0000                	unimp
     484:	0000                	unimp
     486:	0000                	unimp
     488:	0004                	.insn	2, 0x0004
     48a:	9f5a01f3          	.insn	4, 0x9f5a01f3
     48e:	023e                	slli	tp,tp,0xf
     490:	0000                	unimp
     492:	0000                	unimp
     494:	0000                	unimp
     496:	0242                	slli	tp,tp,0x10
     498:	0000                	unimp
     49a:	0000                	unimp
     49c:	0000                	unimp
     49e:	0001                	nop
     4a0:	005a                	c.slli	zero,0x16
	...
     4ae:	0000                	unimp
     4b0:	2400                	fld	fs0,8(s0)
     4b2:	0002                	c.slli64	zero
     4b4:	0000                	unimp
     4b6:	0000                	unimp
     4b8:	2400                	fld	fs0,8(s0)
     4ba:	0002                	c.slli64	zero
     4bc:	0000                	unimp
     4be:	0000                	unimp
     4c0:	0100                	addi	s0,sp,128
     4c2:	5b00                	lw	s0,48(a4)
     4c4:	0224                	addi	s1,sp,264
     4c6:	0000                	unimp
     4c8:	0000                	unimp
     4ca:	0000                	unimp
     4cc:	0228                	addi	a0,sp,264
     4ce:	0000                	unimp
     4d0:	0000                	unimp
     4d2:	0000                	unimp
     4d4:	7f7b0003          	lb	zero,2039(s6)
     4d8:	289f 0002 0000      	.insn	6, 0x0002289f
     4de:	0000                	unimp
     4e0:	2a00                	fld	fs0,16(a2)
     4e2:	0002                	c.slli64	zero
     4e4:	0000                	unimp
     4e6:	0000                	unimp
     4e8:	0600                	addi	s0,sp,768
     4ea:	f300                	sd	s0,32(a4)
     4ec:	5b01                	li	s6,-32
     4ee:	1c31                	addi	s8,s8,-20 # fffffffffffdffec <__global_pointer$+0xffffffff7ffde7a4>
     4f0:	2a9f 0002 0000      	.insn	6, 0x00022a9f
     4f6:	0000                	unimp
     4f8:	3800                	fld	fs0,48(s0)
     4fa:	0002                	c.slli64	zero
     4fc:	0000                	unimp
     4fe:	0000                	unimp
     500:	0b00                	addi	s0,sp,400
     502:	7f00                	ld	s0,56(a4)
     504:	2000                	fld	fs0,0(s0)
     506:	225b01f3          	.insn	4, 0x225b01f3
     50a:	007a                	c.slli	zero,0x1e
     50c:	9f22                	add	t5,t5,s0
     50e:	023e                	slli	tp,tp,0xf
     510:	0000                	unimp
     512:	0000                	unimp
     514:	0000                	unimp
     516:	0242                	slli	tp,tp,0x10
     518:	0000                	unimp
     51a:	0000                	unimp
     51c:	0000                	unimp
     51e:	7f7b0003          	lb	zero,2039(s6)
     522:	009f 0000 0000      	.insn	6, 0x009f
	...
     530:	0000                	unimp
     532:	2400                	fld	fs0,8(s0)
     534:	0002                	c.slli64	zero
     536:	0000                	unimp
     538:	0000                	unimp
     53a:	2a00                	fld	fs0,16(a2)
     53c:	0002                	c.slli64	zero
     53e:	0000                	unimp
     540:	0000                	unimp
     542:	0100                	addi	s0,sp,128
     544:	5a00                	lw	s0,48(a2)
     546:	022a                	slli	tp,tp,0xa
     548:	0000                	unimp
     54a:	0000                	unimp
     54c:	0000                	unimp
     54e:	0238                	addi	a4,sp,264
     550:	0000                	unimp
     552:	0000                	unimp
     554:	0000                	unimp
     556:	0001                	nop
     558:	3e5f 0002 0000      	.insn	6, 0x00023e5f
     55e:	0000                	unimp
     560:	4200                	lw	s0,0(a2)
     562:	0002                	c.slli64	zero
     564:	0000                	unimp
     566:	0000                	unimp
     568:	0100                	addi	s0,sp,128
     56a:	5a00                	lw	s0,48(a2)
	...
     57c:	020a                	slli	tp,tp,0x2
     57e:	0000                	unimp
     580:	0000                	unimp
     582:	0000                	unimp
     584:	021e                	slli	tp,tp,0x7
     586:	0000                	unimp
     588:	0000                	unimp
     58a:	0000                	unimp
     58c:	0001                	nop
     58e:	1e5a                	slli	t3,t3,0x36
     590:	0002                	c.slli64	zero
     592:	0000                	unimp
     594:	0000                	unimp
     596:	2000                	fld	fs0,0(s0)
     598:	0002                	c.slli64	zero
     59a:	0000                	unimp
     59c:	0000                	unimp
     59e:	0400                	addi	s0,sp,512
     5a0:	f300                	sd	s0,32(a4)
     5a2:	5a01                	li	s4,-32
     5a4:	209f 0002 0000      	.insn	6, 0x0002209f
     5aa:	0000                	unimp
     5ac:	2400                	fld	fs0,8(s0)
     5ae:	0002                	c.slli64	zero
     5b0:	0000                	unimp
     5b2:	0000                	unimp
     5b4:	0100                	addi	s0,sp,128
     5b6:	5a00                	lw	s0,48(a2)
	...
     5c8:	020a                	slli	tp,tp,0x2
     5ca:	0000                	unimp
     5cc:	0000                	unimp
     5ce:	0000                	unimp
     5d0:	0212                	slli	tp,tp,0x4
     5d2:	0000                	unimp
     5d4:	0000                	unimp
     5d6:	0000                	unimp
     5d8:	0001                	nop
     5da:	125a                	slli	tp,tp,0x36
     5dc:	0002                	c.slli64	zero
     5de:	0000                	unimp
     5e0:	0000                	unimp
     5e2:	2000                	fld	fs0,0(s0)
     5e4:	0002                	c.slli64	zero
     5e6:	0000                	unimp
     5e8:	0000                	unimp
     5ea:	0100                	addi	s0,sp,128
     5ec:	5f00                	lw	s0,56(a4)
     5ee:	0220                	addi	s0,sp,264
     5f0:	0000                	unimp
     5f2:	0000                	unimp
     5f4:	0000                	unimp
     5f6:	0224                	addi	s1,sp,264
     5f8:	0000                	unimp
     5fa:	0000                	unimp
     5fc:	0000                	unimp
     5fe:	0001                	nop
     600:	005a                	c.slli	zero,0x16
	...
     60e:	0000                	unimp
     610:	c200                	sw	s0,0(a2)
     612:	0001                	nop
     614:	0000                	unimp
     616:	0000                	unimp
     618:	dc00                	sw	s0,56(s0)
     61a:	0001                	nop
     61c:	0000                	unimp
     61e:	0000                	unimp
     620:	0100                	addi	s0,sp,128
     622:	5b00                	lw	s0,48(a4)
     624:	01dc                	addi	a5,sp,196
     626:	0000                	unimp
     628:	0000                	unimp
     62a:	0000                	unimp
     62c:	01de                	slli	gp,gp,0x17
     62e:	0000                	unimp
     630:	0000                	unimp
     632:	0000                	unimp
     634:	0004                	.insn	2, 0x0004
     636:	9f5b01f3          	.insn	4, 0x9f5b01f3
     63a:	01de                	slli	gp,gp,0x17
     63c:	0000                	unimp
     63e:	0000                	unimp
     640:	0000                	unimp
     642:	01e4                	addi	s1,sp,204
     644:	0000                	unimp
     646:	0000                	unimp
     648:	0000                	unimp
     64a:	0001                	nop
     64c:	0001e45b          	.insn	4, 0x0001e45b
     650:	0000                	unimp
     652:	0000                	unimp
     654:	0a00                	addi	s0,sp,272
     656:	0002                	c.slli64	zero
     658:	0000                	unimp
     65a:	0000                	unimp
     65c:	0400                	addi	s0,sp,512
     65e:	f300                	sd	s0,32(a4)
     660:	5b01                	li	s6,-32
     662:	009f 0000 0000      	.insn	6, 0x009f
	...
     670:	0000                	unimp
     672:	c200                	sw	s0,0(a2)
     674:	0001                	nop
     676:	0000                	unimp
     678:	0000                	unimp
     67a:	cc00                	sw	s0,24(s0)
     67c:	0001                	nop
     67e:	0000                	unimp
     680:	0000                	unimp
     682:	0100                	addi	s0,sp,128
     684:	5c00                	lw	s0,56(s0)
     686:	01cc                	addi	a1,sp,196
     688:	0000                	unimp
     68a:	0000                	unimp
     68c:	0000                	unimp
     68e:	01e0                	addi	s0,sp,204
     690:	0000                	unimp
     692:	0000                	unimp
     694:	0000                	unimp
     696:	0004                	.insn	2, 0x0004
     698:	9f5c01f3          	.insn	4, 0x9f5c01f3
     69c:	01e0                	addi	s0,sp,204
     69e:	0000                	unimp
     6a0:	0000                	unimp
     6a2:	0000                	unimp
     6a4:	01f8                	addi	a4,sp,204
     6a6:	0000                	unimp
     6a8:	0000                	unimp
     6aa:	0000                	unimp
     6ac:	0001                	nop
     6ae:	f85c                	sd	a5,176(s0)
     6b0:	0001                	nop
     6b2:	0000                	unimp
     6b4:	0000                	unimp
     6b6:	0a00                	addi	s0,sp,272
     6b8:	0002                	c.slli64	zero
     6ba:	0000                	unimp
     6bc:	0000                	unimp
     6be:	0400                	addi	s0,sp,512
     6c0:	f300                	sd	s0,32(a4)
     6c2:	5c01                	li	s8,-32
     6c4:	009f 0000 0000      	.insn	6, 0x009f
	...
     6d2:	0000                	unimp
     6d4:	e000                	sd	s0,0(s0)
     6d6:	0001                	nop
     6d8:	0000                	unimp
     6da:	0000                	unimp
     6dc:	e400                	sd	s0,8(s0)
     6de:	0001                	nop
     6e0:	0000                	unimp
     6e2:	0000                	unimp
     6e4:	1200                	addi	s0,sp,288
     6e6:	7b00                	ld	s0,48(a4)
     6e8:	0800                	addi	s0,sp,16
     6ea:	ff0c1aff 1affffff 	.insn	12, 0x0101010c1affffffff0c1aff
     6f2:	0101010c 
     6f6:	1e01                	addi	t3,t3,-32
     6f8:	e49f 0001 0000      	.insn	6, 0x0001e49f
     6fe:	0000                	unimp
     700:	f600                	sd	s0,40(a2)
     702:	0001                	nop
     704:	0000                	unimp
     706:	0000                	unimp
     708:	1300                	addi	s0,sp,416
     70a:	f300                	sd	s0,32(a4)
     70c:	5b01                	li	s6,-32
     70e:	ff08                	sd	a0,56(a4)
     710:	0c1a                	slli	s8,s8,0x6
     712:	ffff                	.insn	2, 0xffff
     714:	ffff                	.insn	2, 0xffff
     716:	0c1a                	slli	s8,s8,0x6
     718:	0101                	addi	sp,sp,0
     71a:	0101                	addi	sp,sp,0
     71c:	9f1e                	add	t5,t5,t2
     71e:	01f6                	slli	gp,gp,0x1d
     720:	0000                	unimp
     722:	0000                	unimp
     724:	0000                	unimp
     726:	020a                	slli	tp,tp,0x2
     728:	0000                	unimp
     72a:	0000                	unimp
     72c:	0000                	unimp
     72e:	0001                	nop
     730:	0000005b          	.insn	4, 0x005b
	...
     740:	f600                	sd	s0,40(a2)
     742:	0001                	nop
     744:	0000                	unimp
     746:	0000                	unimp
     748:	fe00                	sd	s0,56(a2)
     74a:	0001                	nop
     74c:	0000                	unimp
     74e:	0000                	unimp
     750:	0100                	addi	s0,sp,128
     752:	5a00                	lw	s0,48(a2)
     754:	01fe                	slli	gp,gp,0x1f
     756:	0000                	unimp
     758:	0000                	unimp
     75a:	0000                	unimp
     75c:	020a                	slli	tp,tp,0x2
     75e:	0000                	unimp
     760:	0000                	unimp
     762:	0000                	unimp
     764:	0001                	nop
     766:	005f 0000 0000      	.insn	6, 0x005f
	...
     774:	0000                	unimp
     776:	ca00                	sw	s0,16(a2)
     778:	0001                	nop
     77a:	0000                	unimp
     77c:	0000                	unimp
     77e:	d200                	sw	s0,32(a2)
     780:	0001                	nop
     782:	0000                	unimp
     784:	0000                	unimp
     786:	0100                	addi	s0,sp,128
     788:	5a00                	lw	s0,48(a2)
     78a:	01d2                	slli	gp,gp,0x14
     78c:	0000                	unimp
     78e:	0000                	unimp
     790:	0000                	unimp
     792:	01dc                	addi	a5,sp,196
     794:	0000                	unimp
     796:	0000                	unimp
     798:	0000                	unimp
     79a:	0001                	nop
     79c:	de5f 0001 0000      	.insn	6, 0x0001de5f
     7a2:	0000                	unimp
     7a4:	e000                	sd	s0,0(s0)
     7a6:	0001                	nop
     7a8:	0000                	unimp
     7aa:	0000                	unimp
     7ac:	0100                	addi	s0,sp,128
     7ae:	5a00                	lw	s0,48(a2)
	...
     7c0:	017e                	slli	sp,sp,0x1f
     7c2:	0000                	unimp
     7c4:	0000                	unimp
     7c6:	0000                	unimp
     7c8:	0194                	addi	a3,sp,192
     7ca:	0000                	unimp
     7cc:	0000                	unimp
     7ce:	0000                	unimp
     7d0:	0001                	nop
     7d2:	0001945b          	.insn	4, 0x0001945b
     7d6:	0000                	unimp
     7d8:	0000                	unimp
     7da:	a600                	fsd	fs0,8(a2)
     7dc:	0001                	nop
     7de:	0000                	unimp
     7e0:	0000                	unimp
     7e2:	0400                	addi	s0,sp,512
     7e4:	f300                	sd	s0,32(a4)
     7e6:	5b01                	li	s6,-32
     7e8:	a69f 0001 0000      	.insn	6, 0x0001a69f
     7ee:	0000                	unimp
     7f0:	b000                	fsd	fs0,32(s0)
     7f2:	0001                	nop
     7f4:	0000                	unimp
     7f6:	0000                	unimp
     7f8:	0100                	addi	s0,sp,128
     7fa:	5b00                	lw	s0,48(a4)
     7fc:	01b0                	addi	a2,sp,200
     7fe:	0000                	unimp
     800:	0000                	unimp
     802:	0000                	unimp
     804:	01c2                	slli	gp,gp,0x10
     806:	0000                	unimp
     808:	0000                	unimp
     80a:	0000                	unimp
     80c:	0004                	.insn	2, 0x0004
     80e:	9f5b01f3          	.insn	4, 0x9f5b01f3
	...
     822:	017e                	slli	sp,sp,0x1f
     824:	0000                	unimp
     826:	0000                	unimp
     828:	0000                	unimp
     82a:	018e                	slli	gp,gp,0x3
     82c:	0000                	unimp
     82e:	0000                	unimp
     830:	0000                	unimp
     832:	0001                	nop
     834:	8e5c                	.insn	2, 0x8e5c
     836:	0001                	nop
     838:	0000                	unimp
     83a:	0000                	unimp
     83c:	a800                	fsd	fs0,16(s0)
     83e:	0001                	nop
     840:	0000                	unimp
     842:	0000                	unimp
     844:	0400                	addi	s0,sp,512
     846:	f300                	sd	s0,32(a4)
     848:	5c01                	li	s8,-32
     84a:	a89f 0001 0000      	.insn	6, 0x0001a89f
     850:	0000                	unimp
     852:	aa00                	fsd	fs0,16(a2)
     854:	0001                	nop
     856:	0000                	unimp
     858:	0000                	unimp
     85a:	0100                	addi	s0,sp,128
     85c:	5c00                	lw	s0,56(s0)
     85e:	01aa                	slli	gp,gp,0xa
     860:	0000                	unimp
     862:	0000                	unimp
     864:	0000                	unimp
     866:	01c2                	slli	gp,gp,0x10
     868:	0000                	unimp
     86a:	0000                	unimp
     86c:	0000                	unimp
     86e:	0004                	.insn	2, 0x0004
     870:	9f5c01f3          	.insn	4, 0x9f5c01f3
	...
     884:	01a8                	addi	a0,sp,200
     886:	0000                	unimp
     888:	0000                	unimp
     88a:	0000                	unimp
     88c:	01b0                	addi	a2,sp,200
     88e:	0000                	unimp
     890:	0000                	unimp
     892:	0000                	unimp
     894:	0001                	nop
     896:	b05a                	fsd	fs6,32(sp)
     898:	0001                	nop
     89a:	0000                	unimp
     89c:	0000                	unimp
     89e:	c200                	sw	s0,0(a2)
     8a0:	0001                	nop
     8a2:	0000                	unimp
     8a4:	0000                	unimp
     8a6:	0100                	addi	s0,sp,128
     8a8:	5f00                	lw	s0,56(a4)
	...
     8ba:	0188                	addi	a0,sp,192
     8bc:	0000                	unimp
     8be:	0000                	unimp
     8c0:	0000                	unimp
     8c2:	01a4                	addi	s1,sp,200
     8c4:	0000                	unimp
     8c6:	0000                	unimp
     8c8:	0000                	unimp
     8ca:	0001                	nop
     8cc:	0001a65b          	.insn	4, 0x0001a65b
     8d0:	0000                	unimp
     8d2:	0000                	unimp
     8d4:	a800                	fsd	fs0,16(s0)
     8d6:	0001                	nop
     8d8:	0000                	unimp
     8da:	0000                	unimp
     8dc:	0100                	addi	s0,sp,128
     8de:	5b00                	lw	s0,48(a4)
	...
     8f0:	0188                	addi	a0,sp,192
     8f2:	0000                	unimp
     8f4:	0000                	unimp
     8f6:	0000                	unimp
     8f8:	0194                	addi	a3,sp,192
     8fa:	0000                	unimp
     8fc:	0000                	unimp
     8fe:	0000                	unimp
     900:	0001                	nop
     902:	945a                	add	s0,s0,s6
     904:	0001                	nop
     906:	0000                	unimp
     908:	0000                	unimp
     90a:	a400                	fsd	fs0,8(s0)
     90c:	0001                	nop
     90e:	0000                	unimp
     910:	0000                	unimp
     912:	0100                	addi	s0,sp,128
     914:	5f00                	lw	s0,56(a4)
     916:	01a6                	slli	gp,gp,0x9
     918:	0000                	unimp
     91a:	0000                	unimp
     91c:	0000                	unimp
     91e:	01a8                	addi	a0,sp,200
     920:	0000                	unimp
     922:	0000                	unimp
     924:	0000                	unimp
     926:	0001                	nop
     928:	005a                	c.slli	zero,0x16
	...
     936:	0000                	unimp
     938:	3800                	fld	fs0,48(s0)
     93a:	0005                	c.nop	1
     93c:	0000                	unimp
     93e:	0000                	unimp
     940:	3a00                	fld	fs0,48(a2)
     942:	0005                	c.nop	1
     944:	0000                	unimp
     946:	0000                	unimp
     948:	0200                	addi	s0,sp,256
     94a:	7200                	ld	s0,32(a2)
     94c:	3a00                	fld	fs0,48(a2)
     94e:	0005                	c.nop	1
     950:	0000                	unimp
     952:	0000                	unimp
     954:	7200                	ld	s0,32(a2)
     956:	0005                	c.nop	1
     958:	0000                	unimp
     95a:	0000                	unimp
     95c:	0300                	addi	s0,sp,384
     95e:	7200                	ld	s0,32(a2)
     960:	00e0                	addi	s0,sp,76
     962:	0572                	slli	a0,a0,0x1c
     964:	0000                	unimp
     966:	0000                	unimp
     968:	0000                	unimp
     96a:	0574                	addi	a3,sp,652
     96c:	0000                	unimp
     96e:	0000                	unimp
     970:	0000                	unimp
     972:	0002                	c.slli64	zero
     974:	0072                	c.slli	zero,0x1c
	...
     986:	0538                	addi	a4,sp,648
     988:	0000                	unimp
     98a:	0000                	unimp
     98c:	0000                	unimp
     98e:	055e                	slli	a0,a0,0x17
     990:	0000                	unimp
     992:	0000                	unimp
     994:	0000                	unimp
     996:	0001                	nop
     998:	5e5a                	lw	t3,180(sp)
     99a:	0005                	c.nop	1
     99c:	0000                	unimp
     99e:	0000                	unimp
     9a0:	6100                	ld	s0,0(a0)
     9a2:	0005                	c.nop	1
     9a4:	0000                	unimp
     9a6:	0000                	unimp
     9a8:	0100                	addi	s0,sp,128
     9aa:	5800                	lw	s0,48(s0)
	...
     9bc:	0538                	addi	a4,sp,648
     9be:	0000                	unimp
     9c0:	0000                	unimp
     9c2:	0000                	unimp
     9c4:	0556                	slli	a0,a0,0x15
     9c6:	0000                	unimp
     9c8:	0000                	unimp
     9ca:	0000                	unimp
     9cc:	0001                	nop
     9ce:	0005565b          	.insn	4, 0x0005565b
     9d2:	0000                	unimp
     9d4:	0000                	unimp
     9d6:	6100                	ld	s0,0(a0)
     9d8:	0005                	c.nop	1
     9da:	0000                	unimp
     9dc:	0000                	unimp
     9de:	0100                	addi	s0,sp,128
     9e0:	5c00                	lw	s0,56(s0)
     9e2:	0561                	addi	a0,a0,24
     9e4:	0000                	unimp
     9e6:	0000                	unimp
     9e8:	0000                	unimp
     9ea:	0574                	addi	a3,sp,652
     9ec:	0000                	unimp
     9ee:	0000                	unimp
     9f0:	0000                	unimp
     9f2:	0004                	.insn	2, 0x0004
     9f4:	9f5b01f3          	.insn	4, 0x9f5b01f3
	...
     a08:	054e                	slli	a0,a0,0x13
     a0a:	0000                	unimp
     a0c:	0000                	unimp
     a0e:	0000                	unimp
     a10:	055e                	slli	a0,a0,0x17
     a12:	0000                	unimp
     a14:	0000                	unimp
     a16:	0000                	unimp
     a18:	0001                	nop
     a1a:	5e5a                	lw	t3,180(sp)
     a1c:	0005                	c.nop	1
     a1e:	0000                	unimp
     a20:	0000                	unimp
     a22:	7000                	ld	s0,32(s0)
     a24:	0005                	c.nop	1
     a26:	0000                	unimp
     a28:	0000                	unimp
     a2a:	0100                	addi	s0,sp,128
     a2c:	5800                	lw	s0,48(s0)
     a2e:	0570                	addi	a2,sp,652
     a30:	0000                	unimp
     a32:	0000                	unimp
     a34:	0000                	unimp
     a36:	0574                	addi	a3,sp,652
     a38:	0000                	unimp
     a3a:	0000                	unimp
     a3c:	0000                	unimp
     a3e:	0004                	.insn	2, 0x0004
     a40:	9f5a01f3          	.insn	4, 0x9f5a01f3
	...
     a54:	050a                	slli	a0,a0,0x2
     a56:	0000                	unimp
     a58:	0000                	unimp
     a5a:	0000                	unimp
     a5c:	050c                	addi	a1,sp,640
     a5e:	0000                	unimp
     a60:	0000                	unimp
     a62:	0000                	unimp
     a64:	0002                	c.slli64	zero
     a66:	0072                	c.slli	zero,0x1c
     a68:	050c                	addi	a1,sp,640
     a6a:	0000                	unimp
     a6c:	0000                	unimp
     a6e:	0000                	unimp
     a70:	0536                	slli	a0,a0,0xd
     a72:	0000                	unimp
     a74:	0000                	unimp
     a76:	0000                	unimp
     a78:	e0720003          	lb	zero,-505(tp) # fffffffffffffe07 <__global_pointer$+0xffffffff7fffe5bf>
     a7c:	3600                	fld	fs0,40(a2)
     a7e:	0005                	c.nop	1
     a80:	0000                	unimp
     a82:	0000                	unimp
     a84:	3800                	fld	fs0,48(s0)
     a86:	0005                	c.nop	1
     a88:	0000                	unimp
     a8a:	0000                	unimp
     a8c:	0200                	addi	s0,sp,256
     a8e:	7200                	ld	s0,32(a2)
	...
     aa0:	0a00                	addi	s0,sp,272
     aa2:	0005                	c.nop	1
     aa4:	0000                	unimp
     aa6:	0000                	unimp
     aa8:	2c00                	fld	fs0,24(s0)
     aaa:	0005                	c.nop	1
     aac:	0000                	unimp
     aae:	0000                	unimp
     ab0:	0100                	addi	s0,sp,128
     ab2:	5a00                	lw	s0,48(a2)
     ab4:	052c                	addi	a1,sp,648
     ab6:	0000                	unimp
     ab8:	0000                	unimp
     aba:	0000                	unimp
     abc:	0000052f          	.insn	4, 0x052f
     ac0:	0000                	unimp
     ac2:	0000                	unimp
     ac4:	0001                	nop
     ac6:	2f5c                	fld	fa5,152(a4)
     ac8:	0005                	c.nop	1
     aca:	0000                	unimp
     acc:	0000                	unimp
     ace:	3800                	fld	fs0,48(s0)
     ad0:	0005                	c.nop	1
     ad2:	0000                	unimp
     ad4:	0000                	unimp
     ad6:	0400                	addi	s0,sp,512
     ad8:	f300                	sd	s0,32(a4)
     ada:	5a01                	li	s4,-32
     adc:	009f 0000 0000      	.insn	6, 0x009f
	...
     aea:	0000                	unimp
     aec:	4200                	lw	s0,0(a2)
     aee:	0002                	c.slli64	zero
     af0:	0000                	unimp
     af2:	0000                	unimp
     af4:	4400                	lw	s0,8(s0)
     af6:	0002                	c.slli64	zero
     af8:	0000                	unimp
     afa:	0000                	unimp
     afc:	0200                	addi	s0,sp,256
     afe:	7200                	ld	s0,32(a2)
     b00:	4400                	lw	s0,8(s0)
     b02:	0002                	c.slli64	zero
     b04:	0000                	unimp
     b06:	0000                	unimp
     b08:	0800                	addi	s0,sp,16
     b0a:	0005                	c.nop	1
     b0c:	0000                	unimp
     b0e:	0000                	unimp
     b10:	0300                	addi	s0,sp,384
     b12:	7200                	ld	s0,32(a2)
     b14:	02f0                	addi	a2,sp,332
     b16:	0508                	addi	a0,sp,640
     b18:	0000                	unimp
     b1a:	0000                	unimp
     b1c:	0000                	unimp
     b1e:	050a                	slli	a0,a0,0x2
     b20:	0000                	unimp
     b22:	0000                	unimp
     b24:	0000                	unimp
     b26:	0002                	c.slli64	zero
     b28:	0072                	c.slli	zero,0x1c
	...
     b3a:	0242                	slli	tp,tp,0x10
     b3c:	0000                	unimp
     b3e:	0000                	unimp
     b40:	0000                	unimp
     b42:	0272                	slli	tp,tp,0x1c
     b44:	0000                	unimp
     b46:	0000                	unimp
     b48:	0000                	unimp
     b4a:	0001                	nop
     b4c:	725a                	ld	tp,432(sp)
     b4e:	0002                	c.slli64	zero
     b50:	0000                	unimp
     b52:	0000                	unimp
     b54:	f600                	sd	s0,40(a2)
     b56:	0004                	.insn	2, 0x0004
     b58:	0000                	unimp
     b5a:	0000                	unimp
     b5c:	0100                	addi	s0,sp,128
     b5e:	6200                	ld	s0,0(a2)
     b60:	04f6                	slli	s1,s1,0x1d
     b62:	0000                	unimp
     b64:	0000                	unimp
     b66:	0000                	unimp
     b68:	050a                	slli	a0,a0,0x2
     b6a:	0000                	unimp
     b6c:	0000                	unimp
     b6e:	0000                	unimp
     b70:	0004                	.insn	2, 0x0004
     b72:	9f5a01f3          	.insn	4, 0x9f5a01f3
	...
     b86:	0242                	slli	tp,tp,0x10
     b88:	0000                	unimp
     b8a:	0000                	unimp
     b8c:	0000                	unimp
     b8e:	0272                	slli	tp,tp,0x1c
     b90:	0000                	unimp
     b92:	0000                	unimp
     b94:	0000                	unimp
     b96:	0001                	nop
     b98:	0002725b          	.insn	4, 0x0002725b
     b9c:	0000                	unimp
     b9e:	0000                	unimp
     ba0:	f400                	sd	s0,40(s0)
     ba2:	0004                	.insn	2, 0x0004
     ba4:	0000                	unimp
     ba6:	0000                	unimp
     ba8:	0100                	addi	s0,sp,128
     baa:	5900                	lw	s0,48(a0)
     bac:	04f4                	addi	a3,sp,588
     bae:	0000                	unimp
     bb0:	0000                	unimp
     bb2:	0000                	unimp
     bb4:	050a                	slli	a0,a0,0x2
     bb6:	0000                	unimp
     bb8:	0000                	unimp
     bba:	0000                	unimp
     bbc:	0004                	.insn	2, 0x0004
     bbe:	9f5b01f3          	.insn	4, 0x9f5b01f3
	...
     bd2:	0242                	slli	tp,tp,0x10
     bd4:	0000                	unimp
     bd6:	0000                	unimp
     bd8:	0000                	unimp
     bda:	0272                	slli	tp,tp,0x1c
     bdc:	0000                	unimp
     bde:	0000                	unimp
     be0:	0000                	unimp
     be2:	0001                	nop
     be4:	725c                	ld	a5,160(a2)
     be6:	0002                	c.slli64	zero
     be8:	0000                	unimp
     bea:	0000                	unimp
     bec:	9000                	.insn	2, 0x9000
     bee:	0002                	c.slli64	zero
     bf0:	0000                	unimp
     bf2:	0000                	unimp
     bf4:	0100                	addi	s0,sp,128
     bf6:	5800                	lw	s0,48(s0)
     bf8:	0290                	addi	a2,sp,320
     bfa:	0000                	unimp
     bfc:	0000                	unimp
     bfe:	0000                	unimp
     c00:	02a0                	addi	s0,sp,328
     c02:	0000                	unimp
     c04:	0000                	unimp
     c06:	0000                	unimp
     c08:	0001                	nop
     c0a:	a065                	j	cb2 <_start-0x7ffff34e>
     c0c:	0002                	c.slli64	zero
     c0e:	0000                	unimp
     c10:	0000                	unimp
     c12:	a400                	fsd	fs0,8(s0)
     c14:	0002                	c.slli64	zero
     c16:	0000                	unimp
     c18:	0000                	unimp
     c1a:	0100                	addi	s0,sp,128
     c1c:	5e00                	lw	s0,56(a2)
     c1e:	02a4                	addi	s1,sp,328
     c20:	0000                	unimp
     c22:	0000                	unimp
     c24:	0000                	unimp
     c26:	04cc                	addi	a1,sp,580
     c28:	0000                	unimp
     c2a:	0000                	unimp
     c2c:	0000                	unimp
     c2e:	0001                	nop
     c30:	cc58                	sw	a4,28(s0)
     c32:	0004                	.insn	2, 0x0004
     c34:	0000                	unimp
     c36:	0000                	unimp
     c38:	d000                	sw	s0,32(s0)
     c3a:	0004                	.insn	2, 0x0004
     c3c:	0000                	unimp
     c3e:	0000                	unimp
     c40:	0100                	addi	s0,sp,128
     c42:	6500                	ld	s0,8(a0)
     c44:	04d0                	addi	a2,sp,580
     c46:	0000                	unimp
     c48:	0000                	unimp
     c4a:	0000                	unimp
     c4c:	04f2                	slli	s1,s1,0x1c
     c4e:	0000                	unimp
     c50:	0000                	unimp
     c52:	0000                	unimp
     c54:	0001                	nop
     c56:	0058                	addi	a4,sp,4
	...
     c64:	0000                	unimp
     c66:	4200                	lw	s0,0(a2)
     c68:	0002                	c.slli64	zero
     c6a:	0000                	unimp
     c6c:	0000                	unimp
     c6e:	7200                	ld	s0,32(a2)
     c70:	0002                	c.slli64	zero
     c72:	0000                	unimp
     c74:	0000                	unimp
     c76:	0100                	addi	s0,sp,128
     c78:	5d00                	lw	s0,56(a0)
     c7a:	0272                	slli	tp,tp,0x1c
     c7c:	0000                	unimp
     c7e:	0000                	unimp
     c80:	0000                	unimp
     c82:	02c0                	addi	s0,sp,324
     c84:	0000                	unimp
     c86:	0000                	unimp
     c88:	0000                	unimp
     c8a:	0001                	nop
     c8c:	c068                	sw	a0,68(s0)
     c8e:	0002                	c.slli64	zero
     c90:	0000                	unimp
     c92:	0000                	unimp
     c94:	c400                	sw	s0,8(s0)
     c96:	0002                	c.slli64	zero
     c98:	0000                	unimp
     c9a:	0000                	unimp
     c9c:	0100                	addi	s0,sp,128
     c9e:	6500                	ld	s0,8(a0)
     ca0:	02c4                	addi	s1,sp,324
     ca2:	0000                	unimp
     ca4:	0000                	unimp
     ca6:	0000                	unimp
     ca8:	030e                	slli	t1,t1,0x3
     caa:	0000                	unimp
     cac:	0000                	unimp
     cae:	0000                	unimp
     cb0:	0001                	nop
     cb2:	0e68                	addi	a0,sp,796
     cb4:	00000003          	lb	zero,0(zero) # 0 <_start-0x80000000>
     cb8:	0000                	unimp
     cba:	1400                	addi	s0,sp,544
     cbc:	00000003          	lb	zero,0(zero) # 0 <_start-0x80000000>
     cc0:	0000                	unimp
     cc2:	0300                	addi	s0,sp,384
     cc4:	8800                	.insn	2, 0x8800
     cc6:	9f08                	.insn	2, 0x9f08
     cc8:	0314                	addi	a3,sp,384
     cca:	0000                	unimp
     ccc:	0000                	unimp
     cce:	0000                	unimp
     cd0:	0344                	addi	s1,sp,388
     cd2:	0000                	unimp
     cd4:	0000                	unimp
     cd6:	0000                	unimp
     cd8:	0001                	nop
     cda:	4468                	lw	a0,76(s0)
     cdc:	00000003          	lb	zero,0(zero) # 0 <_start-0x80000000>
     ce0:	0000                	unimp
     ce2:	5000                	lw	s0,32(s0)
     ce4:	00000003          	lb	zero,0(zero) # 0 <_start-0x80000000>
     ce8:	0000                	unimp
     cea:	0100                	addi	s0,sp,128
     cec:	6300                	ld	s0,0(a4)
     cee:	0350                	addi	a2,sp,388
     cf0:	0000                	unimp
     cf2:	0000                	unimp
     cf4:	0000                	unimp
     cf6:	0354                	addi	a3,sp,388
     cf8:	0000                	unimp
     cfa:	0000                	unimp
     cfc:	0000                	unimp
     cfe:	0001                	nop
     d00:	5468                	lw	a0,108(s0)
     d02:	00000003          	lb	zero,0(zero) # 0 <_start-0x80000000>
     d06:	0000                	unimp
     d08:	c800                	sw	s0,16(s0)
     d0a:	00000003          	lb	zero,0(zero) # 0 <_start-0x80000000>
     d0e:	0000                	unimp
     d10:	0100                	addi	s0,sp,128
     d12:	6500                	ld	s0,8(a0)
     d14:	03c8                	addi	a0,sp,452
     d16:	0000                	unimp
     d18:	0000                	unimp
     d1a:	0000                	unimp
     d1c:	03d2                	slli	t2,t2,0x14
     d1e:	0000                	unimp
     d20:	0000                	unimp
     d22:	0000                	unimp
     d24:	0001                	nop
     d26:	d268                	sw	a0,100(a2)
     d28:	00000003          	lb	zero,0(zero) # 0 <_start-0x80000000>
     d2c:	0000                	unimp
     d2e:	d800                	sw	s0,48(s0)
     d30:	00000003          	lb	zero,0(zero) # 0 <_start-0x80000000>
     d34:	0000                	unimp
     d36:	0300                	addi	s0,sp,384
     d38:	8800                	.insn	2, 0x8800
     d3a:	9f08                	.insn	2, 0x9f08
     d3c:	03d8                	addi	a4,sp,452
     d3e:	0000                	unimp
     d40:	0000                	unimp
     d42:	0000                	unimp
     d44:	03da                	slli	t2,t2,0x16
     d46:	0000                	unimp
     d48:	0000                	unimp
     d4a:	0000                	unimp
     d4c:	0001                	nop
     d4e:	da68                	sw	a0,116(a2)
     d50:	00000003          	lb	zero,0(zero) # 0 <_start-0x80000000>
     d54:	0000                	unimp
     d56:	e000                	sd	s0,0(s0)
     d58:	00000003          	lb	zero,0(zero) # 0 <_start-0x80000000>
     d5c:	0000                	unimp
     d5e:	0300                	addi	s0,sp,384
     d60:	8800                	.insn	2, 0x8800
     d62:	9f08                	.insn	2, 0x9f08
     d64:	03e0                	addi	s0,sp,460
     d66:	0000                	unimp
     d68:	0000                	unimp
     d6a:	0000                	unimp
     d6c:	03ea                	slli	t2,t2,0x1a
     d6e:	0000                	unimp
     d70:	0000                	unimp
     d72:	0000                	unimp
     d74:	0001                	nop
     d76:	ea68                	sd	a0,208(a2)
     d78:	00000003          	lb	zero,0(zero) # 0 <_start-0x80000000>
     d7c:	0000                	unimp
     d7e:	f000                	sd	s0,32(s0)
     d80:	00000003          	lb	zero,0(zero) # 0 <_start-0x80000000>
     d84:	0000                	unimp
     d86:	0300                	addi	s0,sp,384
     d88:	8800                	.insn	2, 0x8800
     d8a:	9f08                	.insn	2, 0x9f08
     d8c:	03f0                	addi	a2,sp,460
     d8e:	0000                	unimp
     d90:	0000                	unimp
     d92:	0000                	unimp
     d94:	0416                	slli	s0,s0,0x5
     d96:	0000                	unimp
     d98:	0000                	unimp
     d9a:	0000                	unimp
     d9c:	0001                	nop
     d9e:	1668                	addi	a0,sp,812
     da0:	0004                	.insn	2, 0x0004
     da2:	0000                	unimp
     da4:	0000                	unimp
     da6:	1c00                	addi	s0,sp,560
     da8:	0004                	.insn	2, 0x0004
     daa:	0000                	unimp
     dac:	0000                	unimp
     dae:	0300                	addi	s0,sp,384
     db0:	8800                	.insn	2, 0x8800
     db2:	9f08                	.insn	2, 0x9f08
     db4:	041c                	addi	a5,sp,512
     db6:	0000                	unimp
     db8:	0000                	unimp
     dba:	0000                	unimp
     dbc:	0428                	addi	a0,sp,520
     dbe:	0000                	unimp
     dc0:	0000                	unimp
     dc2:	0000                	unimp
     dc4:	0001                	nop
     dc6:	2868                	fld	fa0,208(s0)
     dc8:	0004                	.insn	2, 0x0004
     dca:	0000                	unimp
     dcc:	0000                	unimp
     dce:	2e00                	fld	fs0,24(a2)
     dd0:	0004                	.insn	2, 0x0004
     dd2:	0000                	unimp
     dd4:	0000                	unimp
     dd6:	0300                	addi	s0,sp,384
     dd8:	8800                	.insn	2, 0x8800
     dda:	9f08                	.insn	2, 0x9f08
     ddc:	042e                	slli	s0,s0,0xb
     dde:	0000                	unimp
     de0:	0000                	unimp
     de2:	0000                	unimp
     de4:	0492                	slli	s1,s1,0x4
     de6:	0000                	unimp
     de8:	0000                	unimp
     dea:	0000                	unimp
     dec:	0001                	nop
     dee:	9268                	.insn	2, 0x9268
     df0:	0004                	.insn	2, 0x0004
     df2:	0000                	unimp
     df4:	0000                	unimp
     df6:	9800                	.insn	2, 0x9800
     df8:	0004                	.insn	2, 0x0004
     dfa:	0000                	unimp
     dfc:	0000                	unimp
     dfe:	0300                	addi	s0,sp,384
     e00:	8800                	.insn	2, 0x8800
     e02:	9f08                	.insn	2, 0x9f08
     e04:	0498                	addi	a4,sp,576
     e06:	0000                	unimp
     e08:	0000                	unimp
     e0a:	0000                	unimp
     e0c:	04d0                	addi	a2,sp,580
     e0e:	0000                	unimp
     e10:	0000                	unimp
     e12:	0000                	unimp
     e14:	0001                	nop
     e16:	d068                	sw	a0,100(s0)
     e18:	0004                	.insn	2, 0x0004
     e1a:	0000                	unimp
     e1c:	0000                	unimp
     e1e:	ee00                	sd	s0,24(a2)
     e20:	0004                	.insn	2, 0x0004
     e22:	0000                	unimp
     e24:	0000                	unimp
     e26:	0100                	addi	s0,sp,128
     e28:	6500                	ld	s0,8(a0)
     e2a:	04ee                	slli	s1,s1,0x1b
     e2c:	0000                	unimp
     e2e:	0000                	unimp
     e30:	0000                	unimp
     e32:	0502                	c.slli64	a0
     e34:	0000                	unimp
     e36:	0000                	unimp
     e38:	0000                	unimp
     e3a:	0001                	nop
     e3c:	0068                	addi	a0,sp,12
	...
     e4a:	0000                	unimp
     e4c:	c000                	sw	s0,0(s0)
     e4e:	0002                	c.slli64	zero
     e50:	0000                	unimp
     e52:	0000                	unimp
     e54:	c200                	sw	s0,0(a2)
     e56:	0002                	c.slli64	zero
     e58:	0000                	unimp
     e5a:	0000                	unimp
     e5c:	0100                	addi	s0,sp,128
     e5e:	6800                	ld	s0,16(s0)
     e60:	035c                	addi	a5,sp,388
     e62:	0000                	unimp
     e64:	0000                	unimp
     e66:	0000                	unimp
     e68:	0360                	addi	s0,sp,396
     e6a:	0000                	unimp
     e6c:	0000                	unimp
     e6e:	0000                	unimp
     e70:	0001                	nop
     e72:	6868                	ld	a0,208(s0)
     e74:	00000003          	lb	zero,0(zero) # 0 <_start-0x80000000>
     e78:	0000                	unimp
     e7a:	7000                	ld	s0,32(s0)
     e7c:	00000003          	lb	zero,0(zero) # 0 <_start-0x80000000>
     e80:	0000                	unimp
     e82:	0100                	addi	s0,sp,128
     e84:	6800                	ld	s0,16(s0)
     e86:	038e                	slli	t2,t2,0x3
     e88:	0000                	unimp
     e8a:	0000                	unimp
     e8c:	0000                	unimp
     e8e:	03c6                	slli	t2,t2,0x11
     e90:	0000                	unimp
     e92:	0000                	unimp
     e94:	0000                	unimp
     e96:	0001                	nop
     e98:	d068                	sw	a0,100(s0)
     e9a:	0004                	.insn	2, 0x0004
     e9c:	0000                	unimp
     e9e:	0000                	unimp
     ea0:	da00                	sw	s0,48(a2)
     ea2:	0004                	.insn	2, 0x0004
     ea4:	0000                	unimp
     ea6:	0000                	unimp
     ea8:	0100                	addi	s0,sp,128
     eaa:	6800                	ld	s0,16(s0)
     eac:	04dc                	addi	a5,sp,580
     eae:	0000                	unimp
     eb0:	0000                	unimp
     eb2:	0000                	unimp
     eb4:	04ee                	slli	s1,s1,0x1b
     eb6:	0000                	unimp
     eb8:	0000                	unimp
     eba:	0000                	unimp
     ebc:	000a                	c.slli	zero,0x2
     ebe:	00091803          	lh	a6,0(s2)
     ec2:	0080                	addi	s0,sp,64
     ec4:	0000                	unimp
     ec6:	9f00                	.insn	2, 0x9f00
	...
     ed8:	0290                	addi	a2,sp,320
     eda:	0000                	unimp
     edc:	0000                	unimp
     ede:	0000                	unimp
     ee0:	02c0                	addi	s0,sp,324
     ee2:	0000                	unimp
     ee4:	0000                	unimp
     ee6:	0000                	unimp
     ee8:	0001                	nop
     eea:	c465                	beqz	s0,fd2 <_start-0x7ffff02e>
     eec:	0002                	c.slli64	zero
     eee:	0000                	unimp
     ef0:	0000                	unimp
     ef2:	5400                	lw	s0,40(s0)
     ef4:	00000003          	lb	zero,0(zero) # 0 <_start-0x80000000>
     ef8:	0000                	unimp
     efa:	0100                	addi	s0,sp,128
     efc:	6500                	ld	s0,8(a0)
     efe:	03c8                	addi	a0,sp,452
     f00:	0000                	unimp
     f02:	0000                	unimp
     f04:	0000                	unimp
     f06:	045a                	slli	s0,s0,0x16
     f08:	0000                	unimp
     f0a:	0000                	unimp
     f0c:	0000                	unimp
     f0e:	0001                	nop
     f10:	8a65                	andi	a2,a2,25
     f12:	0004                	.insn	2, 0x0004
     f14:	0000                	unimp
     f16:	0000                	unimp
     f18:	9a00                	.insn	2, 0x9a00
     f1a:	0004                	.insn	2, 0x0004
     f1c:	0000                	unimp
     f1e:	0000                	unimp
     f20:	0100                	addi	s0,sp,128
     f22:	6500                	ld	s0,8(a0)
     f24:	04ba                	slli	s1,s1,0xe
     f26:	0000                	unimp
     f28:	0000                	unimp
     f2a:	0000                	unimp
     f2c:	04d0                	addi	a2,sp,580
     f2e:	0000                	unimp
     f30:	0000                	unimp
     f32:	0000                	unimp
     f34:	0001                	nop
     f36:	0065                	c.nop	25
	...
     f44:	0000                	unimp
     f46:	7600                	ld	s0,40(a2)
     f48:	0002                	c.slli64	zero
     f4a:	0000                	unimp
     f4c:	0000                	unimp
     f4e:	7a00                	ld	s0,48(a2)
     f50:	0002                	c.slli64	zero
     f52:	0000                	unimp
     f54:	0000                	unimp
     f56:	0800                	addi	s0,sp,16
     f58:	7800                	ld	s0,48(s0)
     f5a:	9400                	.insn	2, 0x9400
     f5c:	0801                	addi	a6,a6,0
     f5e:	7a9f1aff 00000002 	.insn	12, 0x83000000000000027a9f1aff
     f66:	83000000 
     f6a:	0002                	c.slli64	zero
     f6c:	0000                	unimp
     f6e:	0000                	unimp
     f70:	0100                	addi	s0,sp,128
     f72:	5a00                	lw	s0,48(a2)
     f74:	0288                	addi	a0,sp,320
     f76:	0000                	unimp
     f78:	0000                	unimp
     f7a:	0000                	unimp
     f7c:	028c                	addi	a1,sp,320
     f7e:	0000                	unimp
     f80:	0000                	unimp
     f82:	0000                	unimp
     f84:	0008                	.insn	2, 0x0008
     f86:	0078                	addi	a4,sp,12
     f88:	0194                	addi	a3,sp,192
     f8a:	ff08                	sd	a0,56(a4)
     f8c:	9f1a                	add	t5,t5,t1
     f8e:	02a8                	addi	a0,sp,328
     f90:	0000                	unimp
     f92:	0000                	unimp
     f94:	0000                	unimp
     f96:	02c0                	addi	s0,sp,324
     f98:	0000                	unimp
     f9a:	0000                	unimp
     f9c:	0000                	unimp
     f9e:	0006                	c.slli	zero,0x1
     fa0:	ff08007b          	.insn	4, 0xff08007b
     fa4:	9f1a                	add	t5,t5,t1
     fa6:	02c4                	addi	s1,sp,324
     fa8:	0000                	unimp
     faa:	0000                	unimp
     fac:	0000                	unimp
     fae:	02ce                	slli	t0,t0,0x13
     fb0:	0000                	unimp
     fb2:	0000                	unimp
     fb4:	0000                	unimp
     fb6:	0006                	c.slli	zero,0x1
     fb8:	ff08007b          	.insn	4, 0xff08007b
     fbc:	9f1a                	add	t5,t5,t1
     fbe:	02d0                	addi	a2,sp,324
     fc0:	0000                	unimp
     fc2:	0000                	unimp
     fc4:	0000                	unimp
     fc6:	02dc                	addi	a5,sp,324
     fc8:	0000                	unimp
     fca:	0000                	unimp
     fcc:	0000                	unimp
     fce:	0006                	c.slli	zero,0x1
     fd0:	ff08007b          	.insn	4, 0xff08007b
     fd4:	9f1a                	add	t5,t5,t1
     fd6:	02dc                	addi	a5,sp,324
     fd8:	0000                	unimp
     fda:	0000                	unimp
     fdc:	0000                	unimp
     fde:	030c                	addi	a1,sp,384
     fe0:	0000                	unimp
     fe2:	0000                	unimp
     fe4:	0000                	unimp
     fe6:	0001                	nop
     fe8:	0c5e                	slli	s8,s8,0x17
     fea:	00000003          	lb	zero,0(zero) # 0 <_start-0x80000000>
     fee:	0000                	unimp
     ff0:	0e00                	addi	s0,sp,784
     ff2:	00000003          	lb	zero,0(zero) # 0 <_start-0x80000000>
     ff6:	0000                	unimp
     ff8:	0800                	addi	s0,sp,16
     ffa:	7800                	ld	s0,48(s0)
     ffc:	9400                	.insn	2, 0x9400
     ffe:	0801                	addi	a6,a6,0
    1000:	0e9f1aff 00000003 	.insn	12, 0x16000000000000030e9f1aff
    1008:	16000000 
    100c:	00000003          	lb	zero,0(zero) # 0 <_start-0x80000000>
    1010:	0000                	unimp
    1012:	0600                	addi	s0,sp,768
    1014:	7b00                	ld	s0,48(a4)
    1016:	0800                	addi	s0,sp,16
    1018:	209f1aff 00000003 	.insn	12, 0x3600000000000003209f1aff
    1020:	36000000 
    1024:	00000003          	lb	zero,0(zero) # 0 <_start-0x80000000>
    1028:	0000                	unimp
    102a:	0600                	addi	s0,sp,768
    102c:	7b00                	ld	s0,48(a4)
    102e:	0800                	addi	s0,sp,16
    1030:	369f1aff 00000003 	.insn	12, 0x3800000000000003369f1aff
    1038:	38000000 
    103c:	00000003          	lb	zero,0(zero) # 0 <_start-0x80000000>
    1040:	0000                	unimp
    1042:	0100                	addi	s0,sp,128
    1044:	5e00                	lw	s0,56(a2)
    1046:	0338                	addi	a4,sp,392
    1048:	0000                	unimp
    104a:	0000                	unimp
    104c:	0000                	unimp
    104e:	033a                	slli	t1,t1,0xe
    1050:	0000                	unimp
    1052:	0000                	unimp
    1054:	0000                	unimp
    1056:	0008                	.insn	2, 0x0008
    1058:	0078                	addi	a4,sp,12
    105a:	0194                	addi	a3,sp,192
    105c:	ff08                	sd	a0,56(a4)
    105e:	9f1a                	add	t5,t5,t1
    1060:	033a                	slli	t1,t1,0xe
    1062:	0000                	unimp
    1064:	0000                	unimp
    1066:	0000                	unimp
    1068:	0346                	slli	t1,t1,0x11
    106a:	0000                	unimp
    106c:	0000                	unimp
    106e:	0000                	unimp
    1070:	0006                	c.slli	zero,0x1
    1072:	ff08007b          	.insn	4, 0xff08007b
    1076:	9f1a                	add	t5,t5,t1
    1078:	0346                	slli	t1,t1,0x11
    107a:	0000                	unimp
    107c:	0000                	unimp
    107e:	0000                	unimp
    1080:	0000034b          	fnmsub.s	ft6,ft0,ft0,ft0,rne
    1084:	0000                	unimp
    1086:	0000                	unimp
    1088:	0008                	.insn	2, 0x0008
    108a:	007e                	c.slli	zero,0x1f
    108c:	0194                	addi	a3,sp,192
    108e:	ff08                	sd	a0,56(a4)
    1090:	9f1a                	add	t5,t5,t1
    1092:	0350                	addi	a2,sp,388
    1094:	0000                	unimp
    1096:	0000                	unimp
    1098:	0000                	unimp
    109a:	036c                	addi	a1,sp,396
    109c:	0000                	unimp
    109e:	0000                	unimp
    10a0:	0000                	unimp
    10a2:	0006                	c.slli	zero,0x1
    10a4:	ff08007b          	.insn	4, 0xff08007b
    10a8:	9f1a                	add	t5,t5,t1
    10aa:	036c                	addi	a1,sp,396
    10ac:	0000                	unimp
    10ae:	0000                	unimp
    10b0:	0000                	unimp
    10b2:	0370                	addi	a2,sp,396
    10b4:	0000                	unimp
    10b6:	0000                	unimp
    10b8:	0000                	unimp
    10ba:	0008                	.insn	2, 0x0008
    10bc:	0088                	addi	a0,sp,64
    10be:	0194                	addi	a3,sp,192
    10c0:	ff08                	sd	a0,56(a4)
    10c2:	9f1a                	add	t5,t5,t1
    10c4:	0370                	addi	a2,sp,396
    10c6:	0000                	unimp
    10c8:	0000                	unimp
    10ca:	0000                	unimp
    10cc:	0372                	slli	t1,t1,0x1c
    10ce:	0000                	unimp
    10d0:	0000                	unimp
    10d2:	0000                	unimp
    10d4:	0006                	c.slli	zero,0x1
    10d6:	ff08007b          	.insn	4, 0xff08007b
    10da:	9f1a                	add	t5,t5,t1
    10dc:	0372                	slli	t1,t1,0x1c
    10de:	0000                	unimp
    10e0:	0000                	unimp
    10e2:	0000                	unimp
    10e4:	00000377          	.insn	4, 0x0377
    10e8:	0000                	unimp
    10ea:	0000                	unimp
    10ec:	0008                	.insn	2, 0x0008
    10ee:	007e                	c.slli	zero,0x1f
    10f0:	0194                	addi	a3,sp,192
    10f2:	ff08                	sd	a0,56(a4)
    10f4:	9f1a                	add	t5,t5,t1
    10f6:	0392                	slli	t2,t2,0x4
    10f8:	0000                	unimp
    10fa:	0000                	unimp
    10fc:	0000                	unimp
    10fe:	0398                	addi	a4,sp,448
    1100:	0000                	unimp
    1102:	0000                	unimp
    1104:	0000                	unimp
    1106:	0008                	.insn	2, 0x0008
    1108:	0088                	addi	a0,sp,64
    110a:	0194                	addi	a3,sp,192
    110c:	ff08                	sd	a0,56(a4)
    110e:	9f1a                	add	t5,t5,t1
    1110:	0398                	addi	a4,sp,448
    1112:	0000                	unimp
    1114:	0000                	unimp
    1116:	0000                	unimp
    1118:	0000039b          	sext.w	t2,zero
    111c:	0000                	unimp
    111e:	0000                	unimp
    1120:	0001                	nop
    1122:	a45a                	fsd	fs6,8(sp)
    1124:	00000003          	lb	zero,0(zero) # 0 <_start-0x80000000>
    1128:	0000                	unimp
    112a:	a600                	fsd	fs0,8(a2)
    112c:	00000003          	lb	zero,0(zero) # 0 <_start-0x80000000>
    1130:	0000                	unimp
    1132:	0800                	addi	s0,sp,16
    1134:	8800                	.insn	2, 0x8800
    1136:	9400                	.insn	2, 0x9400
    1138:	0801                	addi	a6,a6,0
    113a:	a69f1aff 00000003 	.insn	12, 0xb000000000000003a69f1aff
    1142:	b0000000 
    1146:	00000003          	lb	zero,0(zero) # 0 <_start-0x80000000>
    114a:	0000                	unimp
    114c:	0100                	addi	s0,sp,128
    114e:	5a00                	lw	s0,48(a2)
    1150:	03c8                	addi	a0,sp,452
    1152:	0000                	unimp
    1154:	0000                	unimp
    1156:	0000                	unimp
    1158:	03e8                	addi	a0,sp,460
    115a:	0000                	unimp
    115c:	0000                	unimp
    115e:	0000                	unimp
    1160:	0006                	c.slli	zero,0x1
    1162:	ff08007b          	.insn	4, 0xff08007b
    1166:	9f1a                	add	t5,t5,t1
    1168:	03ea                	slli	t2,t2,0x1a
    116a:	0000                	unimp
    116c:	0000                	unimp
    116e:	0000                	unimp
    1170:	03f4                	addi	a3,sp,460
    1172:	0000                	unimp
    1174:	0000                	unimp
    1176:	0000                	unimp
    1178:	0006                	c.slli	zero,0x1
    117a:	ff08007b          	.insn	4, 0xff08007b
    117e:	9f1a                	add	t5,t5,t1
    1180:	0402                	c.slli64	s0
    1182:	0000                	unimp
    1184:	0000                	unimp
    1186:	0000                	unimp
    1188:	0406                	slli	s0,s0,0x1
    118a:	0000                	unimp
    118c:	0000                	unimp
    118e:	0000                	unimp
    1190:	0006                	c.slli	zero,0x1
    1192:	ff08007b          	.insn	4, 0xff08007b
    1196:	9f1a                	add	t5,t5,t1
    1198:	041e                	slli	s0,s0,0x7
    119a:	0000                	unimp
    119c:	0000                	unimp
    119e:	0000                	unimp
    11a0:	0422                	slli	s0,s0,0x8
    11a2:	0000                	unimp
    11a4:	0000                	unimp
    11a6:	0000                	unimp
    11a8:	0006                	c.slli	zero,0x1
    11aa:	ff08007b          	.insn	4, 0xff08007b
    11ae:	9f1a                	add	t5,t5,t1
    11b0:	048a                	slli	s1,s1,0x2
    11b2:	0000                	unimp
    11b4:	0000                	unimp
    11b6:	0000                	unimp
    11b8:	048e                	slli	s1,s1,0x3
    11ba:	0000                	unimp
    11bc:	0000                	unimp
    11be:	0000                	unimp
    11c0:	0006                	c.slli	zero,0x1
    11c2:	ff08007b          	.insn	4, 0xff08007b
    11c6:	9f1a                	add	t5,t5,t1
    11c8:	04ba                	slli	s1,s1,0xe
    11ca:	0000                	unimp
    11cc:	0000                	unimp
    11ce:	0000                	unimp
    11d0:	04bc                	addi	a5,sp,584
    11d2:	0000                	unimp
    11d4:	0000                	unimp
    11d6:	0000                	unimp
    11d8:	0006                	c.slli	zero,0x1
    11da:	ff08007b          	.insn	4, 0xff08007b
    11de:	9f1a                	add	t5,t5,t1
    11e0:	04bc                	addi	a5,sp,584
    11e2:	0000                	unimp
    11e4:	0000                	unimp
    11e6:	0000                	unimp
    11e8:	04c1                	addi	s1,s1,16
    11ea:	0000                	unimp
    11ec:	0000                	unimp
    11ee:	0000                	unimp
    11f0:	0008                	.insn	2, 0x0008
    11f2:	007e                	c.slli	zero,0x1f
    11f4:	0194                	addi	a3,sp,192
    11f6:	ff08                	sd	a0,56(a4)
    11f8:	9f1a                	add	t5,t5,t1
    11fa:	04c4                	addi	s1,sp,580
    11fc:	0000                	unimp
    11fe:	0000                	unimp
    1200:	0000                	unimp
    1202:	04c6                	slli	s1,s1,0x11
    1204:	0000                	unimp
    1206:	0000                	unimp
    1208:	0000                	unimp
    120a:	0006                	c.slli	zero,0x1
    120c:	ff08007b          	.insn	4, 0xff08007b
    1210:	9f1a                	add	t5,t5,t1
    1212:	04c6                	slli	s1,s1,0x11
    1214:	0000                	unimp
    1216:	0000                	unimp
    1218:	0000                	unimp
    121a:	000004cb          	fnmsub.s	fs1,ft0,ft0,ft0,rne
    121e:	0000                	unimp
    1220:	0000                	unimp
    1222:	0008                	.insn	2, 0x0008
    1224:	007e                	c.slli	zero,0x1f
    1226:	0194                	addi	a3,sp,192
    1228:	ff08                	sd	a0,56(a4)
    122a:	9f1a                	add	t5,t5,t1
    122c:	04d4                	addi	a3,sp,580
    122e:	0000                	unimp
    1230:	0000                	unimp
    1232:	0000                	unimp
    1234:	04da                	slli	s1,s1,0x16
    1236:	0000                	unimp
    1238:	0000                	unimp
    123a:	0000                	unimp
    123c:	0008                	.insn	2, 0x0008
    123e:	0088                	addi	a0,sp,64
    1240:	0194                	addi	a3,sp,192
    1242:	ff08                	sd	a0,56(a4)
    1244:	9f1a                	add	t5,t5,t1
    1246:	04da                	slli	s1,s1,0x16
    1248:	0000                	unimp
    124a:	0000                	unimp
    124c:	0000                	unimp
    124e:	04dc                	addi	a5,sp,580
    1250:	0000                	unimp
    1252:	0000                	unimp
    1254:	0000                	unimp
    1256:	0006                	c.slli	zero,0x1
    1258:	007a                	c.slli	zero,0x1e
    125a:	ff08                	sd	a0,56(a4)
    125c:	9f1a                	add	t5,t5,t1
    125e:	04dc                	addi	a5,sp,580
    1260:	0000                	unimp
    1262:	0000                	unimp
    1264:	0000                	unimp
    1266:	04ee                	slli	s1,s1,0x1b
    1268:	0000                	unimp
    126a:	0000                	unimp
    126c:	0000                	unimp
    126e:	0006                	c.slli	zero,0x1
    1270:	ff08007b          	.insn	4, 0xff08007b
    1274:	9f1a                	add	t5,t5,t1
    1276:	04ee                	slli	s1,s1,0x1b
    1278:	0000                	unimp
    127a:	0000                	unimp
    127c:	0000                	unimp
    127e:	050a                	slli	a0,a0,0x2
    1280:	0000                	unimp
    1282:	0000                	unimp
    1284:	0000                	unimp
    1286:	0001                	nop
    1288:	005a                	c.slli	zero,0x16
	...
    1296:	0000                	unimp
    1298:	e000                	sd	s0,0(s0)
    129a:	00000003          	lb	zero,0(zero) # 0 <_start-0x80000000>
    129e:	0000                	unimp
    12a0:	ea00                	sd	s0,16(a2)
    12a2:	00000003          	lb	zero,0(zero) # 0 <_start-0x80000000>
    12a6:	0000                	unimp
    12a8:	0100                	addi	s0,sp,128
    12aa:	6300                	ld	s0,0(a4)
    12ac:	03f2                	slli	t2,t2,0x1c
    12ae:	0000                	unimp
    12b0:	0000                	unimp
    12b2:	0000                	unimp
    12b4:	03fe                	slli	t2,t2,0x1f
    12b6:	0000                	unimp
    12b8:	0000                	unimp
    12ba:	0000                	unimp
    12bc:	0001                	nop
    12be:	0003fe63          	bgeu	t2,zero,12da <_start-0x7fffed26>
    12c2:	0000                	unimp
    12c4:	0000                	unimp
    12c6:	0200                	addi	s0,sp,256
    12c8:	0004                	.insn	2, 0x0004
    12ca:	0000                	unimp
    12cc:	0000                	unimp
    12ce:	0100                	addi	s0,sp,128
    12d0:	5f00                	lw	s0,56(a4)
    12d2:	042e                	slli	s0,s0,0xb
    12d4:	0000                	unimp
    12d6:	0000                	unimp
    12d8:	0000                	unimp
    12da:	0444                	addi	s1,sp,516
    12dc:	0000                	unimp
    12de:	0000                	unimp
    12e0:	0000                	unimp
    12e2:	0001                	nop
    12e4:	005f 0000 0000      	.insn	6, 0x005f
	...
    12f2:	0000                	unimp
    12f4:	1400                	addi	s0,sp,544
    12f6:	0004                	.insn	2, 0x0004
    12f8:	0000                	unimp
    12fa:	0000                	unimp
    12fc:	1600                	addi	s0,sp,800
    12fe:	0004                	.insn	2, 0x0004
    1300:	0000                	unimp
    1302:	0000                	unimp
    1304:	0200                	addi	s0,sp,256
    1306:	4000                	lw	s0,0(s0)
    1308:	169f 0004 0000      	.insn	6, 0x0004169f
    130e:	0000                	unimp
    1310:	1e00                	addi	s0,sp,816
    1312:	0004                	.insn	2, 0x0004
    1314:	0000                	unimp
    1316:	0000                	unimp
    1318:	0100                	addi	s0,sp,128
    131a:	5b00                	lw	s0,48(a4)
    131c:	0422                	slli	s0,s0,0x8
    131e:	0000                	unimp
    1320:	0000                	unimp
    1322:	0000                	unimp
    1324:	0462                	slli	s0,s0,0x18
    1326:	0000                	unimp
    1328:	0000                	unimp
    132a:	0000                	unimp
    132c:	0001                	nop
    132e:	0004905b          	.insn	4, 0x0004905b
    1332:	0000                	unimp
    1334:	0000                	unimp
    1336:	9a00                	.insn	2, 0x9a00
    1338:	0004                	.insn	2, 0x0004
    133a:	0000                	unimp
    133c:	0000                	unimp
    133e:	0100                	addi	s0,sp,128
    1340:	5b00                	lw	s0,48(a4)
	...
    1352:	0290                	addi	a2,sp,320
    1354:	0000                	unimp
    1356:	0000                	unimp
    1358:	0000                	unimp
    135a:	02a0                	addi	s0,sp,328
    135c:	0000                	unimp
    135e:	0000                	unimp
    1360:	0000                	unimp
    1362:	0002                	c.slli64	zero
    1364:	9f30                	.insn	2, 0x9f30
    1366:	02a0                	addi	s0,sp,328
    1368:	0000                	unimp
    136a:	0000                	unimp
    136c:	0000                	unimp
    136e:	02c0                	addi	s0,sp,324
    1370:	0000                	unimp
    1372:	0000                	unimp
    1374:	0000                	unimp
    1376:	0001                	nop
    1378:	c45c                	sw	a5,12(s0)
    137a:	0002                	c.slli64	zero
    137c:	0000                	unimp
    137e:	0000                	unimp
    1380:	4b00                	lw	s0,16(a4)
    1382:	00000003          	lb	zero,0(zero) # 0 <_start-0x80000000>
    1386:	0000                	unimp
    1388:	0100                	addi	s0,sp,128
    138a:	5c00                	lw	s0,56(s0)
    138c:	0350                	addi	a2,sp,388
    138e:	0000                	unimp
    1390:	0000                	unimp
    1392:	0000                	unimp
    1394:	00000377          	.insn	4, 0x0377
    1398:	0000                	unimp
    139a:	0000                	unimp
    139c:	0001                	nop
    139e:	c85c                	sw	a5,20(s0)
    13a0:	00000003          	lb	zero,0(zero) # 0 <_start-0x80000000>
    13a4:	0000                	unimp
    13a6:	f900                	sd	s0,48(a0)
    13a8:	00000003          	lb	zero,0(zero) # 0 <_start-0x80000000>
    13ac:	0000                	unimp
    13ae:	0100                	addi	s0,sp,128
    13b0:	5c00                	lw	s0,56(s0)
    13b2:	0402                	c.slli64	s0
    13b4:	0000                	unimp
    13b6:	0000                	unimp
    13b8:	0000                	unimp
    13ba:	0404                	addi	s1,sp,512
    13bc:	0000                	unimp
    13be:	0000                	unimp
    13c0:	0000                	unimp
    13c2:	0001                	nop
    13c4:	045c                	addi	a5,sp,516
    13c6:	0004                	.insn	2, 0x0004
    13c8:	0000                	unimp
    13ca:	0000                	unimp
    13cc:	1600                	addi	s0,sp,800
    13ce:	0004                	.insn	2, 0x0004
    13d0:	0000                	unimp
    13d2:	0000                	unimp
    13d4:	0200                	addi	s0,sp,256
    13d6:	3100                	fld	fs0,32(a0)
    13d8:	1e9f 0004 0000      	.insn	6, 0x00041e9f
    13de:	0000                	unimp
    13e0:	2e00                	fld	fs0,24(a2)
    13e2:	0004                	.insn	2, 0x0004
    13e4:	0000                	unimp
    13e6:	0000                	unimp
    13e8:	0100                	addi	s0,sp,128
    13ea:	5c00                	lw	s0,56(s0)
    13ec:	048a                	slli	s1,s1,0x2
    13ee:	0000                	unimp
    13f0:	0000                	unimp
    13f2:	0000                	unimp
    13f4:	049a                	slli	s1,s1,0x6
    13f6:	0000                	unimp
    13f8:	0000                	unimp
    13fa:	0000                	unimp
    13fc:	0001                	nop
    13fe:	ba5c                	fsd	fa5,176(a2)
    1400:	0004                	.insn	2, 0x0004
    1402:	0000                	unimp
    1404:	0000                	unimp
    1406:	c100                	sw	s0,0(a0)
    1408:	0004                	.insn	2, 0x0004
    140a:	0000                	unimp
    140c:	0000                	unimp
    140e:	0100                	addi	s0,sp,128
    1410:	5c00                	lw	s0,56(s0)
    1412:	04c4                	addi	s1,sp,580
    1414:	0000                	unimp
    1416:	0000                	unimp
    1418:	0000                	unimp
    141a:	000004cb          	fnmsub.s	fs1,ft0,ft0,ft0,rne
    141e:	0000                	unimp
    1420:	0000                	unimp
    1422:	0001                	nop
    1424:	dc5c                	sw	a5,60(s0)
    1426:	0004                	.insn	2, 0x0004
    1428:	0000                	unimp
    142a:	0000                	unimp
    142c:	ee00                	sd	s0,24(a2)
    142e:	0004                	.insn	2, 0x0004
    1430:	0000                	unimp
    1432:	0000                	unimp
    1434:	0100                	addi	s0,sp,128
    1436:	5c00                	lw	s0,56(s0)
	...
    1448:	0290                	addi	a2,sp,320
    144a:	0000                	unimp
    144c:	0000                	unimp
    144e:	0000                	unimp
    1450:	02a0                	addi	s0,sp,328
    1452:	0000                	unimp
    1454:	0000                	unimp
    1456:	0000                	unimp
    1458:	ff090003          	lb	zero,-16(s2)
    145c:	a09f 0002 0000      	.insn	6, 0x0002a09f
    1462:	0000                	unimp
    1464:	1c00                	addi	s0,sp,560
    1466:	00000003          	lb	zero,0(zero) # 0 <_start-0x80000000>
    146a:	0000                	unimp
    146c:	0100                	addi	s0,sp,128
    146e:	6600                	ld	s0,8(a2)
    1470:	0320                	addi	s0,sp,392
    1472:	0000                	unimp
    1474:	0000                	unimp
    1476:	0000                	unimp
    1478:	032a                	slli	t1,t1,0xa
    147a:	0000                	unimp
    147c:	0000                	unimp
    147e:	0000                	unimp
    1480:	0001                	nop
    1482:	2e66                	fld	ft8,88(sp)
    1484:	00000003          	lb	zero,0(zero) # 0 <_start-0x80000000>
    1488:	0000                	unimp
    148a:	3000                	fld	fs0,32(s0)
    148c:	00000003          	lb	zero,0(zero) # 0 <_start-0x80000000>
    1490:	0000                	unimp
    1492:	0100                	addi	s0,sp,128
    1494:	5f00                	lw	s0,56(a4)
    1496:	0330                	addi	a2,sp,392
    1498:	0000                	unimp
    149a:	0000                	unimp
    149c:	0000                	unimp
    149e:	038e                	slli	t2,t2,0x3
    14a0:	0000                	unimp
    14a2:	0000                	unimp
    14a4:	0000                	unimp
    14a6:	0001                	nop
    14a8:	8e66                	mv	t3,s9
    14aa:	00000003          	lb	zero,0(zero) # 0 <_start-0x80000000>
    14ae:	0000                	unimp
    14b0:	9800                	.insn	2, 0x9800
    14b2:	00000003          	lb	zero,0(zero) # 0 <_start-0x80000000>
    14b6:	0000                	unimp
    14b8:	0200                	addi	s0,sp,256
    14ba:	3000                	fld	fs0,32(s0)
    14bc:	989f 0003 0000      	.insn	6, 0x0003989f
    14c2:	0000                	unimp
    14c4:	8400                	.insn	2, 0x8400
    14c6:	0004                	.insn	2, 0x0004
    14c8:	0000                	unimp
    14ca:	0000                	unimp
    14cc:	0100                	addi	s0,sp,128
    14ce:	6600                	ld	s0,8(a2)
    14d0:	048a                	slli	s1,s1,0x2
    14d2:	0000                	unimp
    14d4:	0000                	unimp
    14d6:	0000                	unimp
    14d8:	049a                	slli	s1,s1,0x6
    14da:	0000                	unimp
    14dc:	0000                	unimp
    14de:	0000                	unimp
    14e0:	0001                	nop
    14e2:	ba66                	fsd	fs9,304(sp)
    14e4:	0004                	.insn	2, 0x0004
    14e6:	0000                	unimp
    14e8:	0000                	unimp
    14ea:	ee00                	sd	s0,24(a2)
    14ec:	0004                	.insn	2, 0x0004
    14ee:	0000                	unimp
    14f0:	0000                	unimp
    14f2:	0100                	addi	s0,sp,128
    14f4:	6600                	ld	s0,8(a2)
	...
    1506:	0290                	addi	a2,sp,320
    1508:	0000                	unimp
    150a:	0000                	unimp
    150c:	0000                	unimp
    150e:	02a0                	addi	s0,sp,328
    1510:	0000                	unimp
    1512:	0000                	unimp
    1514:	0000                	unimp
    1516:	ff090003          	lb	zero,-16(s2)
    151a:	a09f 0002 0000      	.insn	6, 0x0002a09f
    1520:	0000                	unimp
    1522:	c000                	sw	s0,0(s0)
    1524:	0002                	c.slli64	zero
    1526:	0000                	unimp
    1528:	0000                	unimp
    152a:	0100                	addi	s0,sp,128
    152c:	6300                	ld	s0,0(a4)
    152e:	02c4                	addi	s1,sp,324
    1530:	0000                	unimp
    1532:	0000                	unimp
    1534:	0000                	unimp
    1536:	02d0                	addi	a2,sp,324
    1538:	0000                	unimp
    153a:	0000                	unimp
    153c:	0000                	unimp
    153e:	0001                	nop
    1540:	0002d063          	bgez	t0,1540 <_start-0x7fffeac0>
    1544:	0000                	unimp
    1546:	0000                	unimp
    1548:	d400                	sw	s0,40(s0)
    154a:	0002                	c.slli64	zero
    154c:	0000                	unimp
    154e:	0000                	unimp
    1550:	0200                	addi	s0,sp,256
    1552:	3000                	fld	fs0,32(s0)
    1554:	d49f 0002 0000      	.insn	6, 0x0002d49f
    155a:	0000                	unimp
    155c:	1200                	addi	s0,sp,288
    155e:	00000003          	lb	zero,0(zero) # 0 <_start-0x80000000>
    1562:	0000                	unimp
    1564:	0100                	addi	s0,sp,128
    1566:	6300                	ld	s0,0(a4)
    1568:	0316                	slli	t1,t1,0x5
    156a:	0000                	unimp
    156c:	0000                	unimp
    156e:	0000                	unimp
    1570:	031e                	slli	t1,t1,0x7
    1572:	0000                	unimp
    1574:	0000                	unimp
    1576:	0000                	unimp
    1578:	0001                	nop
    157a:	00031e63          	bnez	t1,1596 <_start-0x7fffea6a>
    157e:	0000                	unimp
    1580:	0000                	unimp
    1582:	2000                	fld	fs0,0(s0)
    1584:	00000003          	lb	zero,0(zero) # 0 <_start-0x80000000>
    1588:	0000                	unimp
    158a:	0100                	addi	s0,sp,128
    158c:	6600                	ld	s0,8(a2)
    158e:	0320                	addi	s0,sp,392
    1590:	0000                	unimp
    1592:	0000                	unimp
    1594:	0000                	unimp
    1596:	0344                	addi	s1,sp,388
    1598:	0000                	unimp
    159a:	0000                	unimp
    159c:	0000                	unimp
    159e:	0001                	nop
    15a0:	00035063          	bgez	t1,15a0 <_start-0x7fffea60>
    15a4:	0000                	unimp
    15a6:	0000                	unimp
    15a8:	b000                	fsd	fs0,32(s0)
    15aa:	00000003          	lb	zero,0(zero) # 0 <_start-0x80000000>
    15ae:	0000                	unimp
    15b0:	0100                	addi	s0,sp,128
    15b2:	6300                	ld	s0,0(a4)
    15b4:	03c8                	addi	a0,sp,452
    15b6:	0000                	unimp
    15b8:	0000                	unimp
    15ba:	0000                	unimp
    15bc:	03d6                	slli	t2,t2,0x15
    15be:	0000                	unimp
    15c0:	0000                	unimp
    15c2:	0000                	unimp
    15c4:	0001                	nop
    15c6:	0003da63          	bgez	t2,15da <_start-0x7fffea26>
    15ca:	0000                	unimp
    15cc:	0000                	unimp
    15ce:	de00                	sw	s0,56(a2)
    15d0:	00000003          	lb	zero,0(zero) # 0 <_start-0x80000000>
    15d4:	0000                	unimp
    15d6:	0100                	addi	s0,sp,128
    15d8:	6300                	ld	s0,0(a4)
    15da:	03ea                	slli	t2,t2,0x1a
    15dc:	0000                	unimp
    15de:	0000                	unimp
    15e0:	0000                	unimp
    15e2:	03ee                	slli	t2,t2,0x1b
    15e4:	0000                	unimp
    15e6:	0000                	unimp
    15e8:	0000                	unimp
    15ea:	0001                	nop
    15ec:	00040263          	beqz	s0,15f0 <_start-0x7fffea10>
    15f0:	0000                	unimp
    15f2:	0000                	unimp
    15f4:	2e00                	fld	fs0,24(a2)
    15f6:	0004                	.insn	2, 0x0004
    15f8:	0000                	unimp
    15fa:	0000                	unimp
    15fc:	0100                	addi	s0,sp,128
    15fe:	6300                	ld	s0,0(a4)
    1600:	048a                	slli	s1,s1,0x2
    1602:	0000                	unimp
    1604:	0000                	unimp
    1606:	0000                	unimp
    1608:	049a                	slli	s1,s1,0x6
    160a:	0000                	unimp
    160c:	0000                	unimp
    160e:	0000                	unimp
    1610:	0001                	nop
    1612:	0004ba63          	.insn	4, 0x0004ba63
    1616:	0000                	unimp
    1618:	0000                	unimp
    161a:	ee00                	sd	s0,24(a2)
    161c:	0004                	.insn	2, 0x0004
    161e:	0000                	unimp
    1620:	0000                	unimp
    1622:	0100                	addi	s0,sp,128
    1624:	6300                	ld	s0,0(a4)
	...
    1636:	0290                	addi	a2,sp,320
    1638:	0000                	unimp
    163a:	0000                	unimp
    163c:	0000                	unimp
    163e:	02a0                	addi	s0,sp,328
    1640:	0000                	unimp
    1642:	0000                	unimp
    1644:	0000                	unimp
    1646:	0002                	c.slli64	zero
    1648:	9f30                	.insn	2, 0x9f30
    164a:	0332                	slli	t1,t1,0xc
    164c:	0000                	unimp
    164e:	0000                	unimp
    1650:	0000                	unimp
    1652:	0336                	slli	t1,t1,0xd
    1654:	0000                	unimp
    1656:	0000                	unimp
    1658:	0000                	unimp
    165a:	0002                	c.slli64	zero
    165c:	9f31                	addw	a4,a4,a2
	...
    166e:	0290                	addi	a2,sp,320
    1670:	0000                	unimp
    1672:	0000                	unimp
    1674:	0000                	unimp
    1676:	02a0                	addi	s0,sp,328
    1678:	0000                	unimp
    167a:	0000                	unimp
    167c:	0000                	unimp
    167e:	20080003          	lb	zero,512(a6)
    1682:	a09f 0002 0000      	.insn	6, 0x0002a09f
    1688:	0000                	unimp
    168a:	c000                	sw	s0,0(s0)
    168c:	0002                	c.slli64	zero
    168e:	0000                	unimp
    1690:	0000                	unimp
    1692:	0100                	addi	s0,sp,128
    1694:	6700                	ld	s0,8(a4)
    1696:	02c4                	addi	s1,sp,324
    1698:	0000                	unimp
    169a:	0000                	unimp
    169c:	0000                	unimp
    169e:	02c6                	slli	t0,t0,0x11
    16a0:	0000                	unimp
    16a2:	0000                	unimp
    16a4:	0000                	unimp
    16a6:	0001                	nop
    16a8:	0002ca67          	.insn	4, 0x0002ca67
    16ac:	0000                	unimp
    16ae:	0000                	unimp
    16b0:	8200                	.insn	2, 0x8200
    16b2:	00000003          	lb	zero,0(zero) # 0 <_start-0x80000000>
    16b6:	0000                	unimp
    16b8:	0100                	addi	s0,sp,128
    16ba:	6700                	ld	s0,8(a4)
    16bc:	03c8                	addi	a0,sp,452
    16be:	0000                	unimp
    16c0:	0000                	unimp
    16c2:	0000                	unimp
    16c4:	0430                	addi	a2,sp,520
    16c6:	0000                	unimp
    16c8:	0000                	unimp
    16ca:	0000                	unimp
    16cc:	0001                	nop
    16ce:	00048a67          	jalr	s4,s1
    16d2:	0000                	unimp
    16d4:	0000                	unimp
    16d6:	9a00                	.insn	2, 0x9a00
    16d8:	0004                	.insn	2, 0x0004
    16da:	0000                	unimp
    16dc:	0000                	unimp
    16de:	0100                	addi	s0,sp,128
    16e0:	6700                	ld	s0,8(a4)
    16e2:	04ba                	slli	s1,s1,0xe
    16e4:	0000                	unimp
    16e6:	0000                	unimp
    16e8:	0000                	unimp
    16ea:	04ee                	slli	s1,s1,0x1b
    16ec:	0000                	unimp
    16ee:	0000                	unimp
    16f0:	0000                	unimp
    16f2:	0001                	nop
    16f4:	00000067          	jr	zero # 0 <_start-0x80000000>
	...
    1704:	ca00                	sw	s0,16(a2)
    1706:	00000003          	lb	zero,0(zero) # 0 <_start-0x80000000>
    170a:	0000                	unimp
    170c:	e000                	sd	s0,0(s0)
    170e:	00000003          	lb	zero,0(zero) # 0 <_start-0x80000000>
    1712:	0000                	unimp
    1714:	0a00                	addi	s0,sp,272
    1716:	f200                	sd	s0,32(a2)
    1718:	0914                	addi	a3,sp,144
    171a:	0000                	unimp
    171c:	0000                	unimp
    171e:	0000                	unimp
    1720:	ea00                	sd	s0,16(a2)
    1722:	00000003          	lb	zero,0(zero) # 0 <_start-0x80000000>
    1726:	0000                	unimp
    1728:	f200                	sd	s0,32(a2)
    172a:	00000003          	lb	zero,0(zero) # 0 <_start-0x80000000>
    172e:	0000                	unimp
    1730:	0a00                	addi	s0,sp,272
    1732:	f200                	sd	s0,32(a2)
    1734:	0914                	addi	a3,sp,144
	...
    174a:	0000                	unimp
    174c:	ca00                	sw	s0,16(a2)
    174e:	00000003          	lb	zero,0(zero) # 0 <_start-0x80000000>
    1752:	0000                	unimp
    1754:	e000                	sd	s0,0(s0)
    1756:	00000003          	lb	zero,0(zero) # 0 <_start-0x80000000>
    175a:	0000                	unimp
    175c:	0100                	addi	s0,sp,128
    175e:	5c00                	lw	s0,56(s0)
    1760:	03ea                	slli	t2,t2,0x1a
    1762:	0000                	unimp
    1764:	0000                	unimp
    1766:	0000                	unimp
    1768:	03f2                	slli	t2,t2,0x1c
    176a:	0000                	unimp
    176c:	0000                	unimp
    176e:	0000                	unimp
    1770:	0001                	nop
    1772:	005c                	addi	a5,sp,4
	...
    1780:	0000                	unimp
    1782:	1400                	addi	s0,sp,544
    1784:	0004                	.insn	2, 0x0004
    1786:	0000                	unimp
    1788:	0000                	unimp
    178a:	1e00                	addi	s0,sp,816
    178c:	0004                	.insn	2, 0x0004
    178e:	0000                	unimp
    1790:	0000                	unimp
    1792:	0a00                	addi	s0,sp,272
    1794:	f200                	sd	s0,32(a2)
    1796:	0914                	addi	a3,sp,144
    1798:	0000                	unimp
    179a:	0000                	unimp
    179c:	0000                	unimp
    179e:	2200                	fld	fs0,0(a2)
    17a0:	0004                	.insn	2, 0x0004
    17a2:	0000                	unimp
    17a4:	0000                	unimp
    17a6:	2e00                	fld	fs0,24(a2)
    17a8:	0004                	.insn	2, 0x0004
    17aa:	0000                	unimp
    17ac:	0000                	unimp
    17ae:	0a00                	addi	s0,sp,272
    17b0:	f200                	sd	s0,32(a2)
    17b2:	0914                	addi	a3,sp,144
    17b4:	0000                	unimp
    17b6:	0000                	unimp
    17b8:	0000                	unimp
    17ba:	9000                	.insn	2, 0x9000
    17bc:	0004                	.insn	2, 0x0004
    17be:	0000                	unimp
    17c0:	0000                	unimp
    17c2:	9a00                	.insn	2, 0x9a00
    17c4:	0004                	.insn	2, 0x0004
    17c6:	0000                	unimp
    17c8:	0000                	unimp
    17ca:	0a00                	addi	s0,sp,272
    17cc:	f200                	sd	s0,32(a2)
    17ce:	0914                	addi	a3,sp,144
	...
    17e4:	0000                	unimp
    17e6:	1400                	addi	s0,sp,544
    17e8:	0004                	.insn	2, 0x0004
    17ea:	0000                	unimp
    17ec:	0000                	unimp
    17ee:	1600                	addi	s0,sp,800
    17f0:	0004                	.insn	2, 0x0004
    17f2:	0000                	unimp
    17f4:	0000                	unimp
    17f6:	0200                	addi	s0,sp,256
    17f8:	3100                	fld	fs0,32(a0)
    17fa:	229f 0004 0000      	.insn	6, 0x0004229f
    1800:	0000                	unimp
    1802:	2e00                	fld	fs0,24(a2)
    1804:	0004                	.insn	2, 0x0004
    1806:	0000                	unimp
    1808:	0000                	unimp
    180a:	0100                	addi	s0,sp,128
    180c:	5c00                	lw	s0,56(s0)
    180e:	0490                	addi	a2,sp,576
    1810:	0000                	unimp
    1812:	0000                	unimp
    1814:	0000                	unimp
    1816:	049a                	slli	s1,s1,0x6
    1818:	0000                	unimp
    181a:	0000                	unimp
    181c:	0000                	unimp
    181e:	0001                	nop
    1820:	005c                	addi	a5,sp,4
	...
    182e:	0000                	unimp
    1830:	3000                	fld	fs0,32(s0)
    1832:	0004                	.insn	2, 0x0004
    1834:	0000                	unimp
    1836:	0000                	unimp
    1838:	8a00                	.insn	2, 0x8a00
    183a:	0004                	.insn	2, 0x0004
    183c:	0000                	unimp
    183e:	0000                	unimp
    1840:	0100                	addi	s0,sp,128
    1842:	6200                	ld	s0,0(a2)
    1844:	049a                	slli	s1,s1,0x6
    1846:	0000                	unimp
    1848:	0000                	unimp
    184a:	0000                	unimp
    184c:	04ba                	slli	s1,s1,0xe
    184e:	0000                	unimp
    1850:	0000                	unimp
    1852:	0000                	unimp
    1854:	0001                	nop
    1856:	0062                	c.slli	zero,0x18
	...
    1864:	0000                	unimp
    1866:	3000                	fld	fs0,32(s0)
    1868:	0004                	.insn	2, 0x0004
    186a:	0000                	unimp
    186c:	0000                	unimp
    186e:	8a00                	.insn	2, 0x8a00
    1870:	0004                	.insn	2, 0x0004
    1872:	0000                	unimp
    1874:	0000                	unimp
    1876:	0100                	addi	s0,sp,128
    1878:	5900                	lw	s0,48(a0)
    187a:	049a                	slli	s1,s1,0x6
    187c:	0000                	unimp
    187e:	0000                	unimp
    1880:	0000                	unimp
    1882:	04ba                	slli	s1,s1,0xe
    1884:	0000                	unimp
    1886:	0000                	unimp
    1888:	0000                	unimp
    188a:	0001                	nop
    188c:	0059                	c.nop	22
	...
    189a:	0000                	unimp
    189c:	3000                	fld	fs0,32(s0)
    189e:	0004                	.insn	2, 0x0004
    18a0:	0000                	unimp
    18a2:	0000                	unimp
    18a4:	6200                	ld	s0,0(a2)
    18a6:	0004                	.insn	2, 0x0004
    18a8:	0000                	unimp
    18aa:	0000                	unimp
    18ac:	0100                	addi	s0,sp,128
    18ae:	5f00                	lw	s0,56(a4)
	...
    18c0:	0430                	addi	a2,sp,520
    18c2:	0000                	unimp
    18c4:	0000                	unimp
    18c6:	0000                	unimp
    18c8:	0462                	slli	s0,s0,0x18
    18ca:	0000                	unimp
    18cc:	0000                	unimp
    18ce:	0000                	unimp
    18d0:	0001                	nop
    18d2:	0000005b          	.insn	4, 0x005b
	...
    18e2:	3000                	fld	fs0,32(s0)
    18e4:	0004                	.insn	2, 0x0004
    18e6:	0000                	unimp
    18e8:	0000                	unimp
    18ea:	5a00                	lw	s0,48(a2)
    18ec:	0004                	.insn	2, 0x0004
    18ee:	0000                	unimp
    18f0:	0000                	unimp
    18f2:	0100                	addi	s0,sp,128
    18f4:	6600                	ld	s0,8(a2)
    18f6:	045a                	slli	s0,s0,0x16
    18f8:	0000                	unimp
    18fa:	0000                	unimp
    18fc:	0000                	unimp
    18fe:	046e                	slli	s0,s0,0x1b
    1900:	0000                	unimp
    1902:	0000                	unimp
    1904:	0000                	unimp
    1906:	0001                	nop
    1908:	0065                	c.nop	25
	...
    1916:	0000                	unimp
    1918:	3000                	fld	fs0,32(s0)
    191a:	0004                	.insn	2, 0x0004
    191c:	0000                	unimp
    191e:	0000                	unimp
    1920:	8000                	.insn	2, 0x8000
    1922:	0004                	.insn	2, 0x0004
    1924:	0000                	unimp
    1926:	0000                	unimp
    1928:	0100                	addi	s0,sp,128
    192a:	6700                	ld	s0,8(a4)
	...
    193c:	0430                	addi	a2,sp,520
    193e:	0000                	unimp
    1940:	0000                	unimp
    1942:	0000                	unimp
    1944:	0436                	slli	s0,s0,0xd
    1946:	0000                	unimp
    1948:	0000                	unimp
    194a:	0000                	unimp
    194c:	0002                	c.slli64	zero
    194e:	9f30                	.insn	2, 0x9f30
    1950:	0436                	slli	s0,s0,0xd
    1952:	0000                	unimp
    1954:	0000                	unimp
    1956:	0000                	unimp
    1958:	0444                	addi	s1,sp,516
    195a:	0000                	unimp
    195c:	0000                	unimp
    195e:	0000                	unimp
    1960:	0002                	c.slli64	zero
    1962:	9f31                	addw	a4,a4,a2
    1964:	0444                	addi	s1,sp,516
    1966:	0000                	unimp
    1968:	0000                	unimp
    196a:	0000                	unimp
    196c:	0456                	slli	s0,s0,0x15
    196e:	0000                	unimp
    1970:	0000                	unimp
    1972:	0000                	unimp
    1974:	0001                	nop
    1976:	00046e63          	bltu	s0,zero,1992 <_start-0x7fffe66e>
    197a:	0000                	unimp
    197c:	0000                	unimp
    197e:	8a00                	.insn	2, 0x8a00
    1980:	0004                	.insn	2, 0x0004
    1982:	0000                	unimp
    1984:	0000                	unimp
    1986:	0300                	addi	s0,sp,384
    1988:	8300                	.insn	2, 0x8300
    198a:	049a9f7f 00000000 	.insn	12, 0x04a0000000000000049a9f7f
    1992:	04a00000 
    1996:	0000                	unimp
    1998:	0000                	unimp
    199a:	0000                	unimp
    199c:	7f830003          	lb	zero,2040(t1)
    19a0:	a09f 0004 0000      	.insn	6, 0x0004a09f
    19a6:	0000                	unimp
    19a8:	a400                	fsd	fs0,8(s0)
    19aa:	0004                	.insn	2, 0x0004
    19ac:	0000                	unimp
    19ae:	0000                	unimp
    19b0:	0300                	addi	s0,sp,384
    19b2:	8300                	.insn	2, 0x8300
    19b4:	9f7e                	add	t5,t5,t6
    19b6:	04a8                	addi	a0,sp,584
    19b8:	0000                	unimp
    19ba:	0000                	unimp
    19bc:	0000                	unimp
    19be:	04b6                	slli	s1,s1,0xd
    19c0:	0000                	unimp
    19c2:	0000                	unimp
    19c4:	0000                	unimp
    19c6:	7f830003          	lb	zero,2040(t1)
    19ca:	009f 0000 0000      	.insn	6, 0x009f
	...
    19d8:	0000                	unimp
    19da:	3600                	fld	fs0,40(a2)
    19dc:	0001                	nop
    19de:	0000                	unimp
    19e0:	0000                	unimp
    19e2:	3800                	fld	fs0,48(s0)
    19e4:	0001                	nop
    19e6:	0000                	unimp
    19e8:	0000                	unimp
    19ea:	0200                	addi	s0,sp,256
    19ec:	7200                	ld	s0,32(a2)
    19ee:	3800                	fld	fs0,48(s0)
    19f0:	0001                	nop
    19f2:	0000                	unimp
    19f4:	0000                	unimp
    19f6:	7c00                	ld	s0,56(s0)
    19f8:	0001                	nop
    19fa:	0000                	unimp
    19fc:	0000                	unimp
    19fe:	0200                	addi	s0,sp,256
    1a00:	7200                	ld	s0,32(a2)
    1a02:	7c30                	ld	a2,120(s0)
    1a04:	0001                	nop
    1a06:	0000                	unimp
    1a08:	0000                	unimp
    1a0a:	7e00                	ld	s0,56(a2)
    1a0c:	0001                	nop
    1a0e:	0000                	unimp
    1a10:	0000                	unimp
    1a12:	0200                	addi	s0,sp,256
    1a14:	7200                	ld	s0,32(a2)
	...
    1a26:	3600                	fld	fs0,40(a2)
    1a28:	0001                	nop
    1a2a:	0000                	unimp
    1a2c:	0000                	unimp
    1a2e:	5600                	lw	s0,40(a2)
    1a30:	0001                	nop
    1a32:	0000                	unimp
    1a34:	0000                	unimp
    1a36:	0100                	addi	s0,sp,128
    1a38:	5a00                	lw	s0,48(a2)
    1a3a:	0156                	slli	sp,sp,0x15
    1a3c:	0000                	unimp
    1a3e:	0000                	unimp
    1a40:	0000                	unimp
    1a42:	0174                	addi	a3,sp,140
    1a44:	0000                	unimp
    1a46:	0000                	unimp
    1a48:	0000                	unimp
    1a4a:	0001                	nop
    1a4c:	005a                	c.slli	zero,0x16
	...
    1a5a:	0000                	unimp
    1a5c:	3a00                	fld	fs0,48(a2)
    1a5e:	0001                	nop
    1a60:	0000                	unimp
    1a62:	0000                	unimp
    1a64:	4e00                	lw	s0,24(a2)
    1a66:	0001                	nop
    1a68:	0000                	unimp
    1a6a:	0000                	unimp
    1a6c:	0200                	addi	s0,sp,256
    1a6e:	3000                	fld	fs0,32(s0)
    1a70:	4e9f 0001 0000      	.insn	6, 0x00014e9f
    1a76:	0000                	unimp
    1a78:	5600                	lw	s0,40(a2)
    1a7a:	0001                	nop
    1a7c:	0000                	unimp
    1a7e:	0000                	unimp
    1a80:	0600                	addi	s0,sp,768
    1a82:	9100                	.insn	2, 0x9100
    1a84:	1c007d67          	.insn	4, 0x1c007d67
    1a88:	569f 0001 0000      	.insn	6, 0x0001569f
    1a8e:	0000                	unimp
    1a90:	6000                	ld	s0,0(s0)
    1a92:	0001                	nop
    1a94:	0000                	unimp
    1a96:	0000                	unimp
    1a98:	0800                	addi	s0,sp,16
    1a9a:	9100                	.insn	2, 0x9100
    1a9c:	1c007d67          	.insn	4, 0x1c007d67
    1aa0:	609f0123          	sb	s1,1538(t5)
    1aa4:	0001                	nop
    1aa6:	0000                	unimp
    1aa8:	0000                	unimp
    1aaa:	6e00                	ld	s0,24(a2)
    1aac:	0001                	nop
    1aae:	0000                	unimp
    1ab0:	0000                	unimp
    1ab2:	0600                	addi	s0,sp,768
    1ab4:	9100                	.insn	2, 0x9100
    1ab6:	1c007d67          	.insn	4, 0x1c007d67
    1aba:	6e9f 0001 0000      	.insn	6, 0x00016e9f
    1ac0:	0000                	unimp
    1ac2:	7700                	ld	s0,40(a4)
    1ac4:	0001                	nop
    1ac6:	0000                	unimp
    1ac8:	0000                	unimp
    1aca:	0800                	addi	s0,sp,16
    1acc:	9100                	.insn	2, 0x9100
    1ace:	1c007d67          	.insn	4, 0x1c007d67
    1ad2:	009f0123          	sb	s1,2(t5)
	...
    1ae2:	0000                	unimp
    1ae4:	7200                	ld	s0,32(a2)
    1ae6:	0001                	nop
    1ae8:	0000                	unimp
    1aea:	0000                	unimp
    1aec:	7700                	ld	s0,40(a4)
    1aee:	0001                	nop
    1af0:	0000                	unimp
    1af2:	0000                	unimp
    1af4:	0100                	addi	s0,sp,128
    1af6:	6100                	ld	s0,0(a0)
    1af8:	00000177          	.insn	4, 0x0177
    1afc:	0000                	unimp
    1afe:	0000                	unimp
    1b00:	0178                	addi	a4,sp,140
    1b02:	0000                	unimp
    1b04:	0000                	unimp
    1b06:	0000                	unimp
    1b08:	58910003          	lb	zero,1417(sp)
    1b0c:	009f 0000 0000      	.insn	6, 0x009f
	...
    1b1a:	0000                	unimp
    1b1c:	3400                	fld	fs0,40(s0)
    1b1e:	0000                	unimp
    1b20:	0000                	unimp
    1b22:	0000                	unimp
    1b24:	3600                	fld	fs0,40(a2)
    1b26:	0000                	unimp
    1b28:	0000                	unimp
    1b2a:	0000                	unimp
    1b2c:	0200                	addi	s0,sp,256
    1b2e:	7200                	ld	s0,32(a2)
    1b30:	3600                	fld	fs0,40(a2)
    1b32:	0000                	unimp
    1b34:	0000                	unimp
    1b36:	0000                	unimp
    1b38:	4600                	lw	s0,8(a2)
    1b3a:	0000                	unimp
    1b3c:	0000                	unimp
    1b3e:	0000                	unimp
    1b40:	0200                	addi	s0,sp,256
    1b42:	7200                	ld	s0,32(a2)
    1b44:	4610                	lw	a2,8(a2)
    1b46:	0000                	unimp
    1b48:	0000                	unimp
    1b4a:	0000                	unimp
    1b4c:	4800                	lw	s0,16(s0)
    1b4e:	0000                	unimp
    1b50:	0000                	unimp
    1b52:	0000                	unimp
    1b54:	0200                	addi	s0,sp,256
    1b56:	7200                	ld	s0,32(a2)
	...
    1b68:	3400                	fld	fs0,40(s0)
    1b6a:	0000                	unimp
    1b6c:	0000                	unimp
    1b6e:	0000                	unimp
    1b70:	3c00                	fld	fs0,56(s0)
    1b72:	0000                	unimp
    1b74:	0000                	unimp
    1b76:	0000                	unimp
    1b78:	0100                	addi	s0,sp,128
    1b7a:	5a00                	lw	s0,48(a2)
    1b7c:	003c                	addi	a5,sp,8
    1b7e:	0000                	unimp
    1b80:	0000                	unimp
    1b82:	0000                	unimp
    1b84:	0048                	addi	a0,sp,4
    1b86:	0000                	unimp
    1b88:	0000                	unimp
    1b8a:	0000                	unimp
    1b8c:	0004                	.insn	2, 0x0004
    1b8e:	9f5a01f3          	.insn	4, 0x9f5a01f3
	...
    1ba2:	0574                	addi	a3,sp,652
    1ba4:	0000                	unimp
    1ba6:	0000                	unimp
    1ba8:	0000                	unimp
    1baa:	0576                	slli	a0,a0,0x1d
    1bac:	0000                	unimp
    1bae:	0000                	unimp
    1bb0:	0000                	unimp
    1bb2:	0002                	c.slli64	zero
    1bb4:	0072                	c.slli	zero,0x1c
    1bb6:	0576                	slli	a0,a0,0x1d
    1bb8:	0000                	unimp
    1bba:	0000                	unimp
    1bbc:	0000                	unimp
    1bbe:	0630                	addi	a2,sp,776
    1bc0:	0000                	unimp
    1bc2:	0000                	unimp
    1bc4:	0000                	unimp
    1bc6:	b0720003          	lb	zero,-1273(tp) # fffffffffffffb07 <__global_pointer$+0xffffffff7fffe2bf>
    1bca:	0001                	nop
	...
    1bd8:	0000                	unimp
    1bda:	7400                	ld	s0,40(s0)
    1bdc:	0005                	c.nop	1
    1bde:	0000                	unimp
    1be0:	0000                	unimp
    1be2:	a200                	fsd	fs0,0(a2)
    1be4:	0005                	c.nop	1
    1be6:	0000                	unimp
    1be8:	0000                	unimp
    1bea:	0100                	addi	s0,sp,128
    1bec:	5a00                	lw	s0,48(a2)
    1bee:	05a2                	slli	a1,a1,0x8
    1bf0:	0000                	unimp
    1bf2:	0000                	unimp
    1bf4:	0000                	unimp
    1bf6:	05d4                	addi	a3,sp,708
    1bf8:	0000                	unimp
    1bfa:	0000                	unimp
    1bfc:	0000                	unimp
    1bfe:	0001                	nop
    1c00:	d459                	beqz	s0,1b8e <_start-0x7fffe472>
    1c02:	0005                	c.nop	1
    1c04:	0000                	unimp
    1c06:	0000                	unimp
    1c08:	3000                	fld	fs0,32(s0)
    1c0a:	0006                	c.slli	zero,0x1
    1c0c:	0000                	unimp
    1c0e:	0000                	unimp
    1c10:	0400                	addi	s0,sp,512
    1c12:	f300                	sd	s0,32(a4)
    1c14:	5a01                	li	s4,-32
    1c16:	009f 0000 0000      	.insn	6, 0x009f
	...
    1c24:	0000                	unimp
    1c26:	7400                	ld	s0,40(s0)
    1c28:	0005                	c.nop	1
    1c2a:	0000                	unimp
    1c2c:	0000                	unimp
    1c2e:	9800                	.insn	2, 0x9800
    1c30:	0005                	c.nop	1
    1c32:	0000                	unimp
    1c34:	0000                	unimp
    1c36:	0100                	addi	s0,sp,128
    1c38:	5b00                	lw	s0,48(a4)
    1c3a:	0598                	addi	a4,sp,704
    1c3c:	0000                	unimp
    1c3e:	0000                	unimp
    1c40:	0000                	unimp
    1c42:	05e6                	slli	a1,a1,0x19
    1c44:	0000                	unimp
    1c46:	0000                	unimp
    1c48:	0000                	unimp
    1c4a:	0001                	nop
    1c4c:	e662                	sd	s8,264(sp)
    1c4e:	0005                	c.nop	1
    1c50:	0000                	unimp
    1c52:	0000                	unimp
    1c54:	0a00                	addi	s0,sp,272
    1c56:	0006                	c.slli	zero,0x1
    1c58:	0000                	unimp
    1c5a:	0000                	unimp
    1c5c:	0400                	addi	s0,sp,512
    1c5e:	f300                	sd	s0,32(a4)
    1c60:	5b01                	li	s6,-32
    1c62:	0a9f 0006 0000      	.insn	6, 0x00060a9f
    1c68:	0000                	unimp
    1c6a:	2800                	fld	fs0,16(s0)
    1c6c:	0006                	c.slli	zero,0x1
    1c6e:	0000                	unimp
    1c70:	0000                	unimp
    1c72:	0100                	addi	s0,sp,128
    1c74:	6200                	ld	s0,0(a2)
    1c76:	0628                	addi	a0,sp,776
    1c78:	0000                	unimp
    1c7a:	0000                	unimp
    1c7c:	0000                	unimp
    1c7e:	0630                	addi	a2,sp,776
    1c80:	0000                	unimp
    1c82:	0000                	unimp
    1c84:	0000                	unimp
    1c86:	0004                	.insn	2, 0x0004
    1c88:	9f5b01f3          	.insn	4, 0x9f5b01f3
	...
    1c9c:	05d4                	addi	a3,sp,708
    1c9e:	0000                	unimp
    1ca0:	0000                	unimp
    1ca2:	0000                	unimp
    1ca4:	05e6                	slli	a1,a1,0x19
    1ca6:	0000                	unimp
    1ca8:	0000                	unimp
    1caa:	0000                	unimp
    1cac:	0001                	nop
    1cae:	e658                	sd	a4,136(a2)
    1cb0:	0005                	c.nop	1
    1cb2:	0000                	unimp
    1cb4:	0000                	unimp
    1cb6:	0400                	addi	s0,sp,512
    1cb8:	0006                	c.slli	zero,0x1
    1cba:	0000                	unimp
    1cbc:	0000                	unimp
    1cbe:	0100                	addi	s0,sp,128
    1cc0:	6200                	ld	s0,0(a2)
    1cc2:	060a                	slli	a2,a2,0x2
    1cc4:	0000                	unimp
    1cc6:	0000                	unimp
    1cc8:	0000                	unimp
    1cca:	0628                	addi	a0,sp,776
    1ccc:	0000                	unimp
    1cce:	0000                	unimp
    1cd0:	0000                	unimp
    1cd2:	0001                	nop
    1cd4:	2858                	fld	fa4,144(s0)
    1cd6:	0006                	c.slli	zero,0x1
    1cd8:	0000                	unimp
    1cda:	0000                	unimp
    1cdc:	3000                	fld	fs0,32(s0)
    1cde:	0006                	c.slli	zero,0x1
    1ce0:	0000                	unimp
    1ce2:	0000                	unimp
    1ce4:	0100                	addi	s0,sp,128
    1ce6:	6200                	ld	s0,0(a2)
	...
    1cf8:	05d4                	addi	a3,sp,708
    1cfa:	0000                	unimp
    1cfc:	0000                	unimp
    1cfe:	0000                	unimp
    1d00:	05de                	slli	a1,a1,0x17
    1d02:	0000                	unimp
    1d04:	0000                	unimp
    1d06:	0000                	unimp
    1d08:	0002                	c.slli64	zero
    1d0a:	9f30                	.insn	2, 0x9f30
    1d0c:	05de                	slli	a1,a1,0x17
    1d0e:	0000                	unimp
    1d10:	0000                	unimp
    1d12:	0000                	unimp
    1d14:	05fa                	slli	a1,a1,0x1e
    1d16:	0000                	unimp
    1d18:	0000                	unimp
    1d1a:	0000                	unimp
    1d1c:	0002                	c.slli64	zero
    1d1e:	9f31                	addw	a4,a4,a2
    1d20:	05fa                	slli	a1,a1,0x1e
    1d22:	0000                	unimp
    1d24:	0000                	unimp
    1d26:	0000                	unimp
    1d28:	0604                	addi	s1,sp,768
    1d2a:	0000                	unimp
    1d2c:	0000                	unimp
    1d2e:	0000                	unimp
    1d30:	0002                	c.slli64	zero
    1d32:	9f32                	add	t5,t5,a2
    1d34:	060a                	slli	a2,a2,0x2
    1d36:	0000                	unimp
    1d38:	0000                	unimp
    1d3a:	0000                	unimp
    1d3c:	0628                	addi	a0,sp,776
    1d3e:	0000                	unimp
    1d40:	0000                	unimp
    1d42:	0000                	unimp
    1d44:	0002                	c.slli64	zero
    1d46:	9f30                	.insn	2, 0x9f30
    1d48:	0628                	addi	a0,sp,776
    1d4a:	0000                	unimp
    1d4c:	0000                	unimp
    1d4e:	0000                	unimp
    1d50:	0630                	addi	a2,sp,776
    1d52:	0000                	unimp
    1d54:	0000                	unimp
    1d56:	0000                	unimp
    1d58:	0002                	c.slli64	zero
    1d5a:	9f31                	addw	a4,a4,a2
	...
    1d6c:	059c                	addi	a5,sp,704
    1d6e:	0000                	unimp
    1d70:	0000                	unimp
    1d72:	0000                	unimp
    1d74:	05b8                	addi	a4,sp,712
    1d76:	0000                	unimp
    1d78:	0000                	unimp
    1d7a:	0000                	unimp
    1d7c:	0001                	nop
    1d7e:	00000063          	beqz	zero,1d7e <_start-0x7fffe282>
	...
    1d8e:	ae00                	fsd	fs0,24(a2)
    1d90:	0005                	c.nop	1
    1d92:	0000                	unimp
    1d94:	0000                	unimp
    1d96:	b700                	fsd	fs0,40(a4)
    1d98:	0005                	c.nop	1
    1d9a:	0000                	unimp
    1d9c:	0000                	unimp
    1d9e:	0100                	addi	s0,sp,128
    1da0:	5c00                	lw	s0,56(s0)
	...
    1db2:	05fe                	slli	a1,a1,0x1f
    1db4:	0000                	unimp
    1db6:	0000                	unimp
    1db8:	0000                	unimp
    1dba:	0604                	addi	s1,sp,768
    1dbc:	0000                	unimp
    1dbe:	0000                	unimp
    1dc0:	0000                	unimp
    1dc2:	0001                	nop
    1dc4:	0058                	addi	a4,sp,4
	...
    1dd2:	0000                	unimp
    1dd4:	0400                	addi	s0,sp,512
    1dd6:	0006                	c.slli	zero,0x1
    1dd8:	0000                	unimp
    1dda:	0000                	unimp
    1ddc:	0a00                	addi	s0,sp,272
    1dde:	0006                	c.slli	zero,0x1
    1de0:	0000                	unimp
    1de2:	0000                	unimp
    1de4:	0100                	addi	s0,sp,128
    1de6:	5900                	lw	s0,48(a0)
	...
    1df8:	011e                	slli	sp,sp,0x7
    1dfa:	0000                	unimp
    1dfc:	0000                	unimp
    1dfe:	0000                	unimp
    1e00:	0120                	addi	s0,sp,136
    1e02:	0000                	unimp
    1e04:	0000                	unimp
    1e06:	0000                	unimp
    1e08:	0002                	c.slli64	zero
    1e0a:	0072                	c.slli	zero,0x1c
    1e0c:	0120                	addi	s0,sp,136
    1e0e:	0000                	unimp
    1e10:	0000                	unimp
    1e12:	0000                	unimp
    1e14:	0134                	addi	a3,sp,136
    1e16:	0000                	unimp
    1e18:	0000                	unimp
    1e1a:	0000                	unimp
    1e1c:	0002                	c.slli64	zero
    1e1e:	1072                	c.slli	zero,0x3c
    1e20:	0134                	addi	a3,sp,136
    1e22:	0000                	unimp
    1e24:	0000                	unimp
    1e26:	0000                	unimp
    1e28:	0136                	slli	sp,sp,0xd
    1e2a:	0000                	unimp
    1e2c:	0000                	unimp
    1e2e:	0000                	unimp
    1e30:	0002                	c.slli64	zero
    1e32:	0072                	c.slli	zero,0x1c
	...
    1e44:	011e                	slli	sp,sp,0x7
    1e46:	0000                	unimp
    1e48:	0000                	unimp
    1e4a:	0000                	unimp
    1e4c:	012a                	slli	sp,sp,0xa
    1e4e:	0000                	unimp
    1e50:	0000                	unimp
    1e52:	0000                	unimp
    1e54:	0001                	nop
    1e56:	2a5a                	fld	fs4,400(sp)
    1e58:	0001                	nop
    1e5a:	0000                	unimp
    1e5c:	0000                	unimp
    1e5e:	3600                	fld	fs0,40(a2)
    1e60:	0001                	nop
    1e62:	0000                	unimp
    1e64:	0000                	unimp
    1e66:	0400                	addi	s0,sp,512
    1e68:	f300                	sd	s0,32(a4)
    1e6a:	5a01                	li	s4,-32
    1e6c:	009f 0000 0000      	.insn	6, 0x009f
	...
    1e7a:	0000                	unimp
    1e7c:	1e00                	addi	s0,sp,816
    1e7e:	0001                	nop
    1e80:	0000                	unimp
    1e82:	0000                	unimp
    1e84:	2d00                	fld	fs0,24(a0)
    1e86:	0001                	nop
    1e88:	0000                	unimp
    1e8a:	0000                	unimp
    1e8c:	0100                	addi	s0,sp,128
    1e8e:	5b00                	lw	s0,48(a4)
    1e90:	012d                	addi	sp,sp,11
    1e92:	0000                	unimp
    1e94:	0000                	unimp
    1e96:	0000                	unimp
    1e98:	0136                	slli	sp,sp,0xd
    1e9a:	0000                	unimp
    1e9c:	0000                	unimp
    1e9e:	0000                	unimp
    1ea0:	0004                	.insn	2, 0x0004
    1ea2:	9f5b01f3          	.insn	4, 0x9f5b01f3
	...
    1eb6:	0122                	slli	sp,sp,0x8
    1eb8:	0000                	unimp
    1eba:	0000                	unimp
    1ebc:	0000                	unimp
    1ebe:	012e                	slli	sp,sp,0xb
    1ec0:	0000                	unimp
    1ec2:	0000                	unimp
    1ec4:	0000                	unimp
    1ec6:	000a                	c.slli	zero,0x2
    1ec8:	00090003          	lb	zero,0(s2)
    1ecc:	0080                	addi	s0,sp,64
    1ece:	0000                	unimp
    1ed0:	9f00                	.insn	2, 0x9f00
	...
    1ee2:	0108                	addi	a0,sp,128
    1ee4:	0000                	unimp
    1ee6:	0000                	unimp
    1ee8:	0000                	unimp
    1eea:	010a                	slli	sp,sp,0x2
    1eec:	0000                	unimp
    1eee:	0000                	unimp
    1ef0:	0000                	unimp
    1ef2:	0002                	c.slli64	zero
    1ef4:	0072                	c.slli	zero,0x1c
    1ef6:	010a                	slli	sp,sp,0x2
    1ef8:	0000                	unimp
    1efa:	0000                	unimp
    1efc:	0000                	unimp
    1efe:	0116                	slli	sp,sp,0x5
    1f00:	0000                	unimp
    1f02:	0000                	unimp
    1f04:	0000                	unimp
    1f06:	0002                	c.slli64	zero
    1f08:	1072                	c.slli	zero,0x3c
    1f0a:	0116                	slli	sp,sp,0x5
    1f0c:	0000                	unimp
    1f0e:	0000                	unimp
    1f10:	0000                	unimp
    1f12:	0118                	addi	a4,sp,128
    1f14:	0000                	unimp
    1f16:	0000                	unimp
    1f18:	0000                	unimp
    1f1a:	0002                	c.slli64	zero
    1f1c:	0072                	c.slli	zero,0x1c
	...
    1f2e:	0108                	addi	a0,sp,128
    1f30:	0000                	unimp
    1f32:	0000                	unimp
    1f34:	0000                	unimp
    1f36:	0000010f          	.insn	4, 0x010f
    1f3a:	0000                	unimp
    1f3c:	0000                	unimp
    1f3e:	0001                	nop
    1f40:	0f5a                	slli	t5,t5,0x16
    1f42:	0001                	nop
    1f44:	0000                	unimp
    1f46:	0000                	unimp
    1f48:	1800                	addi	s0,sp,48
    1f4a:	0001                	nop
    1f4c:	0000                	unimp
    1f4e:	0000                	unimp
    1f50:	0400                	addi	s0,sp,512
    1f52:	f300                	sd	s0,32(a4)
    1f54:	5a01                	li	s4,-32
    1f56:	009f 0000 0000      	.insn	6, 0x009f
	...
    1f64:	0000                	unimp
    1f66:	0c00                	addi	s0,sp,528
    1f68:	0001                	nop
    1f6a:	0000                	unimp
    1f6c:	0000                	unimp
    1f6e:	0f00                	addi	s0,sp,912
    1f70:	0001                	nop
    1f72:	0000                	unimp
    1f74:	0000                	unimp
    1f76:	0100                	addi	s0,sp,128
    1f78:	5a00                	lw	s0,48(a2)
    1f7a:	0000010f          	.insn	4, 0x010f
    1f7e:	0000                	unimp
    1f80:	0000                	unimp
    1f82:	0110                	addi	a2,sp,128
    1f84:	0000                	unimp
    1f86:	0000                	unimp
    1f88:	0000                	unimp
    1f8a:	0004                	.insn	2, 0x0004
    1f8c:	9f5a01f3          	.insn	4, 0x9f5a01f3
	...
    1fa0:	00ee                	slli	ra,ra,0x1b
    1fa2:	0000                	unimp
    1fa4:	0000                	unimp
    1fa6:	0000                	unimp
    1fa8:	00f0                	addi	a2,sp,76
    1faa:	0000                	unimp
    1fac:	0000                	unimp
    1fae:	0000                	unimp
    1fb0:	0002                	c.slli64	zero
    1fb2:	0072                	c.slli	zero,0x1c
    1fb4:	00f0                	addi	a2,sp,76
    1fb6:	0000                	unimp
    1fb8:	0000                	unimp
    1fba:	0000                	unimp
    1fbc:	00fa                	slli	ra,ra,0x1e
    1fbe:	0000                	unimp
    1fc0:	0000                	unimp
    1fc2:	0000                	unimp
    1fc4:	0002                	c.slli64	zero
    1fc6:	1072                	c.slli	zero,0x3c
	...
    1fd8:	00da                	slli	ra,ra,0x16
    1fda:	0000                	unimp
    1fdc:	0000                	unimp
    1fde:	0000                	unimp
    1fe0:	00dc                	addi	a5,sp,68
    1fe2:	0000                	unimp
    1fe4:	0000                	unimp
    1fe6:	0000                	unimp
    1fe8:	0002                	c.slli64	zero
    1fea:	0072                	c.slli	zero,0x1c
    1fec:	00dc                	addi	a5,sp,68
    1fee:	0000                	unimp
    1ff0:	0000                	unimp
    1ff2:	0000                	unimp
    1ff4:	00e6                	slli	ra,ra,0x19
    1ff6:	0000                	unimp
    1ff8:	0000                	unimp
    1ffa:	0000                	unimp
    1ffc:	0002                	c.slli64	zero
    1ffe:	1072                	c.slli	zero,0x3c
	...
    2010:	00da                	slli	ra,ra,0x16
    2012:	0000                	unimp
    2014:	0000                	unimp
    2016:	0000                	unimp
    2018:	00e2                	slli	ra,ra,0x18
    201a:	0000                	unimp
    201c:	0000                	unimp
    201e:	0000                	unimp
    2020:	0001                	nop
    2022:	e25a                	sd	s6,256(sp)
    2024:	0000                	unimp
    2026:	0000                	unimp
    2028:	0000                	unimp
    202a:	e600                	sd	s0,8(a2)
    202c:	0000                	unimp
    202e:	0000                	unimp
    2030:	0000                	unimp
    2032:	0400                	addi	s0,sp,512
    2034:	f300                	sd	s0,32(a4)
    2036:	5a01                	li	s4,-32
    2038:	009f 0000 0000      	.insn	6, 0x009f
	...
    2046:	0000                	unimp
    2048:	da00                	sw	s0,48(a2)
    204a:	0000                	unimp
    204c:	0000                	unimp
    204e:	0000                	unimp
    2050:	e500                	sd	s0,8(a0)
    2052:	0000                	unimp
    2054:	0000                	unimp
    2056:	0000                	unimp
    2058:	0100                	addi	s0,sp,128
    205a:	5b00                	lw	s0,48(a4)
    205c:	00e5                	addi	ra,ra,25
    205e:	0000                	unimp
    2060:	0000                	unimp
    2062:	0000                	unimp
    2064:	00e6                	slli	ra,ra,0x19
    2066:	0000                	unimp
    2068:	0000                	unimp
    206a:	0000                	unimp
    206c:	0004                	.insn	2, 0x0004
    206e:	9f5b01f3          	.insn	4, 0x9f5b01f3
	...
    2082:	00da                	slli	ra,ra,0x16
    2084:	0000                	unimp
    2086:	0000                	unimp
    2088:	0000                	unimp
    208a:	00e5                	addi	ra,ra,25
    208c:	0000                	unimp
    208e:	0000                	unimp
    2090:	0000                	unimp
    2092:	0001                	nop
    2094:	e55c                	sd	a5,136(a0)
    2096:	0000                	unimp
    2098:	0000                	unimp
    209a:	0000                	unimp
    209c:	e600                	sd	s0,8(a2)
    209e:	0000                	unimp
    20a0:	0000                	unimp
    20a2:	0000                	unimp
    20a4:	0400                	addi	s0,sp,512
    20a6:	f300                	sd	s0,32(a4)
    20a8:	5c01                	li	s8,-32
    20aa:	009f 0000 0000      	.insn	6, 0x009f
	...
    20b8:	0000                	unimp
    20ba:	8200                	.insn	2, 0x8200
    20bc:	0000                	unimp
    20be:	0000                	unimp
    20c0:	0000                	unimp
    20c2:	9e00                	.insn	2, 0x9e00
    20c4:	0000                	unimp
    20c6:	0000                	unimp
    20c8:	0000                	unimp
    20ca:	0200                	addi	s0,sp,256
    20cc:	3000                	fld	fs0,32(s0)
    20ce:	9e9f 0000 0000      	.insn	6, 0x9e9f
    20d4:	0000                	unimp
    20d6:	c200                	sw	s0,0(a2)
    20d8:	0000                	unimp
    20da:	0000                	unimp
    20dc:	0000                	unimp
    20de:	0200                	addi	s0,sp,256
    20e0:	3100                	fld	fs0,32(a0)
    20e2:	c29f 0000 0000      	.insn	6, 0xc29f
    20e8:	0000                	unimp
    20ea:	c800                	sw	s0,16(s0)
    20ec:	0000                	unimp
    20ee:	0000                	unimp
    20f0:	0000                	unimp
    20f2:	0200                	addi	s0,sp,256
    20f4:	3200                	fld	fs0,32(a2)
    20f6:	009f 0000 0000      	.insn	6, 0x009f
	...
    2104:	0000                	unimp
    2106:	8600                	.insn	2, 0x8600
    2108:	0000                	unimp
    210a:	0000                	unimp
    210c:	0000                	unimp
    210e:	aa00                	fsd	fs0,16(a2)
    2110:	0000                	unimp
    2112:	0000                	unimp
    2114:	0000                	unimp
    2116:	0100                	addi	s0,sp,128
    2118:	5f00                	lw	s0,56(a4)
    211a:	00aa                	slli	ra,ra,0xa
    211c:	0000                	unimp
    211e:	0000                	unimp
    2120:	0000                	unimp
    2122:	00c8                	addi	a0,sp,68
    2124:	0000                	unimp
    2126:	0000                	unimp
    2128:	0000                	unimp
    212a:	0009                	c.nop	2
    212c:	00104803          	lbu	a6,1(zero) # 1 <_start-0x7fffffff>
    2130:	0080                	addi	s0,sp,64
	...
    2142:	0000                	unimp
    2144:	8600                	.insn	2, 0x8600
    2146:	0000                	unimp
    2148:	0000                	unimp
    214a:	0000                	unimp
    214c:	9400                	.insn	2, 0x9400
    214e:	0000                	unimp
    2150:	0000                	unimp
    2152:	0000                	unimp
    2154:	0100                	addi	s0,sp,128
    2156:	5f00                	lw	s0,56(a4)
	...
    2168:	00aa                	slli	ra,ra,0xa
    216a:	0000                	unimp
    216c:	0000                	unimp
    216e:	0000                	unimp
    2170:	00b8                	addi	a4,sp,72
    2172:	0000                	unimp
    2174:	0000                	unimp
    2176:	0000                	unimp
    2178:	0001                	nop
    217a:	005f 0000 0000      	.insn	6, 0x005f
	...
    2188:	0000                	unimp
    218a:	6000                	ld	s0,0(s0)
    218c:	0000                	unimp
    218e:	0000                	unimp
    2190:	0000                	unimp
    2192:	6200                	ld	s0,0(a2)
    2194:	0000                	unimp
    2196:	0000                	unimp
    2198:	0000                	unimp
    219a:	0200                	addi	s0,sp,256
    219c:	7200                	ld	s0,32(a2)
    219e:	6200                	ld	s0,0(a2)
    21a0:	0000                	unimp
    21a2:	0000                	unimp
    21a4:	0000                	unimp
    21a6:	8000                	.insn	2, 0x8000
    21a8:	0000                	unimp
    21aa:	0000                	unimp
    21ac:	0000                	unimp
    21ae:	0200                	addi	s0,sp,256
    21b0:	7200                	ld	s0,32(a2)
    21b2:	8010                	.insn	2, 0x8010
    21b4:	0000                	unimp
    21b6:	0000                	unimp
    21b8:	0000                	unimp
    21ba:	8200                	.insn	2, 0x8200
    21bc:	0000                	unimp
    21be:	0000                	unimp
    21c0:	0000                	unimp
    21c2:	0200                	addi	s0,sp,256
    21c4:	7200                	ld	s0,32(a2)
	...
    21d6:	6000                	ld	s0,0(s0)
    21d8:	0000                	unimp
    21da:	0000                	unimp
    21dc:	0000                	unimp
    21de:	6c00                	ld	s0,24(s0)
    21e0:	0000                	unimp
    21e2:	0000                	unimp
    21e4:	0000                	unimp
    21e6:	0100                	addi	s0,sp,128
    21e8:	5a00                	lw	s0,48(a2)
    21ea:	006c                	addi	a1,sp,12
    21ec:	0000                	unimp
    21ee:	0000                	unimp
    21f0:	0000                	unimp
    21f2:	007e                	c.slli	zero,0x1f
    21f4:	0000                	unimp
    21f6:	0000                	unimp
    21f8:	0000                	unimp
    21fa:	0001                	nop
    21fc:	0058                	addi	a4,sp,4
	...
    220a:	0000                	unimp
    220c:	e600                	sd	s0,8(a2)
    220e:	0000                	unimp
    2210:	0000                	unimp
    2212:	0000                	unimp
    2214:	e800                	sd	s0,16(s0)
    2216:	0000                	unimp
    2218:	0000                	unimp
    221a:	0000                	unimp
    221c:	0200                	addi	s0,sp,256
    221e:	7200                	ld	s0,32(a2)
    2220:	e800                	sd	s0,16(s0)
    2222:	0000                	unimp
    2224:	0000                	unimp
    2226:	0000                	unimp
    2228:	ee00                	sd	s0,24(a2)
    222a:	0000                	unimp
    222c:	0000                	unimp
    222e:	0000                	unimp
    2230:	0200                	addi	s0,sp,256
    2232:	7200                	ld	s0,32(a2)
    2234:	0010                	.insn	2, 0x0010
	...
    2242:	0000                	unimp
    2244:	e600                	sd	s0,8(a2)
    2246:	0000                	unimp
    2248:	0000                	unimp
    224a:	0000                	unimp
    224c:	ed00                	sd	s0,24(a0)
    224e:	0000                	unimp
    2250:	0000                	unimp
    2252:	0000                	unimp
    2254:	0100                	addi	s0,sp,128
    2256:	5a00                	lw	s0,48(a2)
    2258:	00ed                	addi	ra,ra,27
    225a:	0000                	unimp
    225c:	0000                	unimp
    225e:	0000                	unimp
    2260:	00ee                	slli	ra,ra,0x1b
    2262:	0000                	unimp
    2264:	0000                	unimp
    2266:	0000                	unimp
    2268:	0004                	.insn	2, 0x0004
    226a:	9f5a01f3          	.insn	4, 0x9f5a01f3
	...
    227e:	00fa                	slli	ra,ra,0x1e
    2280:	0000                	unimp
    2282:	0000                	unimp
    2284:	0000                	unimp
    2286:	00fc                	addi	a5,sp,76
    2288:	0000                	unimp
    228a:	0000                	unimp
    228c:	0000                	unimp
    228e:	0002                	c.slli64	zero
    2290:	0072                	c.slli	zero,0x1c
    2292:	00fc                	addi	a5,sp,76
    2294:	0000                	unimp
    2296:	0000                	unimp
    2298:	0000                	unimp
    229a:	0106                	slli	sp,sp,0x1
    229c:	0000                	unimp
    229e:	0000                	unimp
    22a0:	0000                	unimp
    22a2:	0002                	c.slli64	zero
    22a4:	1072                	c.slli	zero,0x3c
    22a6:	0106                	slli	sp,sp,0x1
    22a8:	0000                	unimp
    22aa:	0000                	unimp
    22ac:	0000                	unimp
    22ae:	0108                	addi	a0,sp,128
    22b0:	0000                	unimp
    22b2:	0000                	unimp
    22b4:	0000                	unimp
    22b6:	0002                	c.slli64	zero
    22b8:	0072                	c.slli	zero,0x1c
	...
    22ca:	00fa                	slli	ra,ra,0x1e
    22cc:	0000                	unimp
    22ce:	0000                	unimp
    22d0:	0000                	unimp
    22d2:	0101                	addi	sp,sp,0
    22d4:	0000                	unimp
    22d6:	0000                	unimp
    22d8:	0000                	unimp
    22da:	0001                	nop
    22dc:	015a                	slli	sp,sp,0x16
    22de:	0001                	nop
    22e0:	0000                	unimp
    22e2:	0000                	unimp
    22e4:	0800                	addi	s0,sp,16
    22e6:	0001                	nop
    22e8:	0000                	unimp
    22ea:	0000                	unimp
    22ec:	0400                	addi	s0,sp,512
    22ee:	f300                	sd	s0,32(a4)
    22f0:	5a01                	li	s4,-32
    22f2:	009f 0000 0000      	.insn	6, 0x009f
	...

Disassembly of section .debug_aranges:

0000000000000000 <.debug_aranges>:
   0:	002c                	addi	a1,sp,8
   2:	0000                	unimp
   4:	0002                	c.slli64	zero
   6:	0000                	unimp
   8:	0000                	unimp
   a:	0008                	.insn	2, 0x0008
   c:	0000                	unimp
   e:	0000                	unimp
  10:	01c2                	slli	gp,gp,0x10
  12:	8000                	.insn	2, 0x8000
  14:	0000                	unimp
  16:	0000                	unimp
  18:	0056                	c.slli	zero,0x15
	...
  2e:	0000                	unimp
  30:	002c                	addi	a1,sp,8
  32:	0000                	unimp
  34:	0002                	c.slli64	zero
  36:	0000028f          	.insn	4, 0x028f
  3a:	0008                	.insn	2, 0x0008
  3c:	0000                	unimp
  3e:	0000                	unimp
  40:	0000                	unimp
  42:	8000                	.insn	2, 0x8000
  44:	0000                	unimp
  46:	0000                	unimp
  48:	01c0                	addi	s0,sp,196
	...
  5e:	0000                	unimp
  60:	002c                	addi	a1,sp,8
  62:	0000                	unimp
  64:	0002                	c.slli64	zero
  66:	02bd                	addi	t0,t0,15 # 10c465d <_start-0x7ef3b9a3>
  68:	0000                	unimp
  6a:	0008                	.insn	2, 0x0008
  6c:	0000                	unimp
  6e:	0000                	unimp
  70:	0218                	addi	a4,sp,256
  72:	8000                	.insn	2, 0x8000
  74:	0000                	unimp
  76:	0000                	unimp
  78:	06c0                	addi	s0,sp,836
	...

Disassembly of section .debug_line:

0000000000000000 <.debug_line>:
       0:	0186                	slli	gp,gp,0x1
       2:	0000                	unimp
       4:	0002                	c.slli64	zero
       6:	005f 0000 0101      	.insn	6, 0x01010000005f
       c:	000a0efb          	.insn	4, 0x000a0efb
      10:	0101                	addi	sp,sp,0
      12:	0101                	addi	sp,sp,0
      14:	0000                	unimp
      16:	0100                	addi	s0,sp,128
      18:	2e2e                	fld	ft8,200(sp)
      1a:	6d6f632f          	.insn	4, 0x6d6f632f
      1e:	6f6d                	lui	t5,0x1b
      20:	006e                	c.slli	zero,0x1b
      22:	74706f2f          	.insn	4, 0x74706f2f
      26:	7369722f          	.insn	4, 0x7369722f
      2a:	722f7663          	bgeu	t5,sp,756 <_start-0x7ffff8aa>
      2e:	7369                	lui	t1,0xffffa
      30:	34367663          	bgeu	a2,gp,37c <_start-0x7ffffc84>
      34:	752d                	lui	a0,0xfffeb
      36:	6b6e                	ld	s6,216(sp)
      38:	6f6e                	ld	t5,216(sp)
      3a:	652d6e77          	.insn	4, 0x652d6e77
      3e:	666c                	ld	a1,200(a2)
      40:	636e692f          	.insn	4, 0x636e692f
      44:	756c                	ld	a1,232(a0)
      46:	6564                	ld	s1,200(a0)
      48:	0000                	unimp
      4a:	2e6d7573          	csrrci	a0,0x2e6,26
      4e:	00000063          	beqz	zero,4e <_start-0x7fffffb2>
      52:	7500                	ld	s0,40(a0)
      54:	6974                	ld	a3,208(a0)
      56:	2e6c                	fld	fa1,216(a2)
      58:	0068                	addi	a0,sp,12
      5a:	0001                	nop
      5c:	7300                	ld	s0,32(a4)
      5e:	6474                	ld	a3,200(s0)
      60:	6f69                	lui	t5,0x1a
      62:	682e                	ld	a6,200(sp)
      64:	0200                	addi	s0,sp,256
      66:	0000                	unimp
      68:	0500                	addi	s0,sp,640
      6a:	0012                	c.slli	zero,0x4
      6c:	0209                	addi	tp,tp,2 # 2 <_start-0x7ffffffe>
      6e:	01c2                	slli	gp,gp,0x10
      70:	8000                	.insn	2, 0x8000
      72:	0000                	unimp
      74:	0000                	unimp
      76:	0516                	slli	a0,a0,0x5
      78:	09010303          	lb	t1,144(sp)
      7c:	0000                	unimp
      7e:	0501                	addi	a0,a0,0 # fffffffffffeb000 <__global_pointer$+0xffffffff7ffe97b8>
      80:	0304                	addi	s1,sp,384
      82:	0901                	addi	s2,s2,0
      84:	0000                	unimp
      86:	0301                	addi	t1,t1,0 # ffffffffffffa000 <__global_pointer$+0xffffffff7fff87b8>
      88:	0901                	addi	s2,s2,0
      8a:	0000                	unimp
      8c:	0501                	addi	a0,a0,0
      8e:	0402000f          	.insn	4, 0x0402000f
      92:	0301                	addi	t1,t1,0
      94:	0900                	addi	s0,sp,144
      96:	0000                	unimp
      98:	0501                	addi	a0,a0,0
      9a:	060a                	slli	a2,a2,0x2
      9c:	08090003          	lb	zero,128(s2)
      a0:	0100                	addi	s0,sp,128
      a2:	0b05                	addi	s6,s6,1
      a4:	02097f03          	.insn	4, 0x02097f03
      a8:	0100                	addi	s0,sp,128
      aa:	0805                	addi	a6,a6,1
      ac:	0306                	slli	t1,t1,0x1
      ae:	0902                	c.slli64	s2
      b0:	0002                	c.slli64	zero
      b2:	0501                	addi	a0,a0,0
      b4:	0003060f          	.insn	4, 0x0003060f
      b8:	0009                	c.nop	2
      ba:	0100                	addi	s0,sp,128
      bc:	1505                	addi	a0,a0,-31
      be:	0200                	addi	s0,sp,256
      c0:	0304                	addi	s1,sp,384
      c2:	0306                	slli	t1,t1,0x1
      c4:	097f 0002 0501 000f 	.insn	10, 0x0402000f05010002097f
      cc:	0402 
      ce:	0301                	addi	t1,t1,0
      d0:	0900                	addi	s0,sp,144
      d2:	0002                	c.slli64	zero
      d4:	0501                	addi	a0,a0,0
      d6:	7f03060b          	.insn	4, 0x7f03060b
      da:	0609                	addi	a2,a2,2
      dc:	0100                	addi	s0,sp,128
      de:	0405                	addi	s0,s0,1
      e0:	0306                	slli	t1,t1,0x1
      e2:	0904                	addi	s1,sp,144
      e4:	0002                	c.slli64	zero
      e6:	0501                	addi	a0,a0,0
      e8:	0601                	addi	a2,a2,0
      ea:	00090103          	lb	sp,0(s2)
      ee:	0100                	addi	s0,sp,128
      f0:	1005                	c.nop	-31
      f2:	0306                	slli	t1,t1,0x1
      f4:	0902                	c.slli64	s2
      f6:	0002                	c.slli64	zero
      f8:	0501                	addi	a0,a0,0
      fa:	0305                	addi	t1,t1,1
      fc:	0901                	addi	s2,s2,0
      fe:	0006                	c.slli	zero,0x1
     100:	0301                	addi	t1,t1,0
     102:	0901                	addi	s2,s2,0
     104:	0000                	unimp
     106:	0301                	addi	t1,t1,0
     108:	0901                	addi	s2,s2,0
     10a:	0006                	c.slli	zero,0x1
     10c:	0501                	addi	a0,a0,0
     10e:	060c                	addi	a1,sp,768
     110:	00090003          	lb	zero,0(s2)
     114:	0100                	addi	s0,sp,128
     116:	0a05                	addi	s4,s4,1
     118:	0200                	addi	s0,sp,256
     11a:	0104                	addi	s1,sp,128
     11c:	06090003          	lb	zero,96(s2)
     120:	0100                	addi	s0,sp,128
     122:	0505                	addi	a0,a0,1
     124:	0306                	slli	t1,t1,0x1
     126:	0901                	addi	s2,s2,0
     128:	0006                	c.slli	zero,0x1
     12a:	0301                	addi	t1,t1,0
     12c:	0901                	addi	s2,s2,0
     12e:	0006                	c.slli	zero,0x1
     130:	0301                	addi	t1,t1,0
     132:	0901                	addi	s2,s2,0
     134:	000e                	c.slli	zero,0x3
     136:	0301                	addi	t1,t1,0
     138:	0901                	addi	s2,s2,0
     13a:	0000                	unimp
     13c:	0401                	addi	s0,s0,0
     13e:	0502                	c.slli64	a0
     140:	09760303          	lb	t1,151(a2)
     144:	0000                	unimp
     146:	0301                	addi	t1,t1,0
     148:	0902                	c.slli64	s2
     14a:	0000                	unimp
     14c:	0501                	addi	a0,a0,0
     14e:	0011                	c.nop	4
     150:	0402                	c.slli64	s0
     152:	0301                	addi	t1,t1,0
     154:	0900                	addi	s0,sp,144
     156:	0000                	unimp
     158:	0501                	addi	a0,a0,0
     15a:	09070303          	lb	t1,144(a4)
     15e:	0000                	unimp
     160:	0501                	addi	a0,a0,0
     162:	0019                	c.nop	6
     164:	0402                	c.slli64	s0
     166:	0601                	addi	a2,a2,0
     168:	00090003          	lb	zero,0(s2)
     16c:	0100                	addi	s0,sp,128
     16e:	1205                	addi	tp,tp,-31 # ffffffffffffffe1 <__global_pointer$+0xffffffff7fffe799>
     170:	0200                	addi	s0,sp,256
     172:	0104                	addi	s1,sp,128
     174:	02090003          	lb	zero,32(s2)
     178:	0100                	addi	s0,sp,128
     17a:	0104                	addi	s1,sp,128
     17c:	0105                	addi	sp,sp,1
     17e:	02090203          	lb	tp,32(s2)
     182:	0100                	addi	s0,sp,128
     184:	0c09                	addi	s8,s8,2
     186:	0000                	unimp
     188:	0101                	addi	sp,sp,0
     18a:	000003f7          	.insn	4, 0x03f7
     18e:	0002                	c.slli64	zero
     190:	00000023          	sb	zero,0(zero) # 0 <_start-0x80000000>
     194:	0101                	addi	sp,sp,0
     196:	000a0efb          	.insn	4, 0x000a0efb
     19a:	0101                	addi	sp,sp,0
     19c:	0101                	addi	sp,sp,0
     19e:	0000                	unimp
     1a0:	0100                	addi	s0,sp,128
     1a2:	2e2e                	fld	ft8,200(sp)
     1a4:	6d6f632f          	.insn	4, 0x6d6f632f
     1a8:	6f6d                	lui	t5,0x1b
     1aa:	006e                	c.slli	zero,0x1b
     1ac:	6300                	ld	s0,0(a4)
     1ae:	7472                	ld	s0,312(sp)
     1b0:	532e                	lw	t1,232(sp)
     1b2:	0100                	addi	s0,sp,128
     1b4:	0000                	unimp
     1b6:	0000                	unimp
     1b8:	0209                	addi	tp,tp,2 # 2 <_start-0x7ffffffe>
     1ba:	0000                	unimp
     1bc:	8000                	.insn	2, 0x8000
     1be:	0000                	unimp
     1c0:	0000                	unimp
     1c2:	03011103          	lh	sp,48(sp)
     1c6:	0901                	addi	s2,s2,0
     1c8:	0002                	c.slli64	zero
     1ca:	0301                	addi	t1,t1,0
     1cc:	0901                	addi	s2,s2,0
     1ce:	0002                	c.slli64	zero
     1d0:	0301                	addi	t1,t1,0
     1d2:	0901                	addi	s2,s2,0
     1d4:	0002                	c.slli64	zero
     1d6:	0301                	addi	t1,t1,0
     1d8:	0901                	addi	s2,s2,0
     1da:	0002                	c.slli64	zero
     1dc:	0301                	addi	t1,t1,0
     1de:	0901                	addi	s2,s2,0
     1e0:	0002                	c.slli64	zero
     1e2:	0301                	addi	t1,t1,0
     1e4:	0901                	addi	s2,s2,0
     1e6:	0002                	c.slli64	zero
     1e8:	0301                	addi	t1,t1,0
     1ea:	0901                	addi	s2,s2,0
     1ec:	0002                	c.slli64	zero
     1ee:	0301                	addi	t1,t1,0
     1f0:	0901                	addi	s2,s2,0
     1f2:	0002                	c.slli64	zero
     1f4:	0301                	addi	t1,t1,0
     1f6:	0901                	addi	s2,s2,0
     1f8:	0002                	c.slli64	zero
     1fa:	0301                	addi	t1,t1,0
     1fc:	0901                	addi	s2,s2,0
     1fe:	0002                	c.slli64	zero
     200:	0301                	addi	t1,t1,0
     202:	0901                	addi	s2,s2,0
     204:	0002                	c.slli64	zero
     206:	0301                	addi	t1,t1,0
     208:	0901                	addi	s2,s2,0
     20a:	0002                	c.slli64	zero
     20c:	0301                	addi	t1,t1,0
     20e:	0901                	addi	s2,s2,0
     210:	0002                	c.slli64	zero
     212:	0301                	addi	t1,t1,0
     214:	0901                	addi	s2,s2,0
     216:	0002                	c.slli64	zero
     218:	0301                	addi	t1,t1,0
     21a:	0901                	addi	s2,s2,0
     21c:	0002                	c.slli64	zero
     21e:	0301                	addi	t1,t1,0
     220:	0901                	addi	s2,s2,0
     222:	0002                	c.slli64	zero
     224:	0301                	addi	t1,t1,0
     226:	0901                	addi	s2,s2,0
     228:	0002                	c.slli64	zero
     22a:	0301                	addi	t1,t1,0
     22c:	0901                	addi	s2,s2,0
     22e:	0002                	c.slli64	zero
     230:	0301                	addi	t1,t1,0
     232:	0901                	addi	s2,s2,0
     234:	0002                	c.slli64	zero
     236:	0301                	addi	t1,t1,0
     238:	0901                	addi	s2,s2,0
     23a:	0002                	c.slli64	zero
     23c:	0301                	addi	t1,t1,0
     23e:	0901                	addi	s2,s2,0
     240:	0002                	c.slli64	zero
     242:	0301                	addi	t1,t1,0
     244:	0901                	addi	s2,s2,0
     246:	0002                	c.slli64	zero
     248:	0301                	addi	t1,t1,0
     24a:	0901                	addi	s2,s2,0
     24c:	0002                	c.slli64	zero
     24e:	0301                	addi	t1,t1,0
     250:	0901                	addi	s2,s2,0
     252:	0002                	c.slli64	zero
     254:	0301                	addi	t1,t1,0
     256:	0901                	addi	s2,s2,0
     258:	0002                	c.slli64	zero
     25a:	0301                	addi	t1,t1,0
     25c:	0901                	addi	s2,s2,0
     25e:	0002                	c.slli64	zero
     260:	0301                	addi	t1,t1,0
     262:	0901                	addi	s2,s2,0
     264:	0002                	c.slli64	zero
     266:	0301                	addi	t1,t1,0
     268:	0901                	addi	s2,s2,0
     26a:	0002                	c.slli64	zero
     26c:	0301                	addi	t1,t1,0
     26e:	0901                	addi	s2,s2,0
     270:	0002                	c.slli64	zero
     272:	0301                	addi	t1,t1,0
     274:	0901                	addi	s2,s2,0
     276:	0002                	c.slli64	zero
     278:	0301                	addi	t1,t1,0
     27a:	00020903          	lb	s2,0(tp) # 0 <_start-0x80000000>
     27e:	0301                	addi	t1,t1,0
     280:	0901                	addi	s2,s2,0
     282:	0002                	c.slli64	zero
     284:	0301                	addi	t1,t1,0
     286:	00040903          	lb	s2,0(s0)
     28a:	0301                	addi	t1,t1,0
     28c:	0901                	addi	s2,s2,0
     28e:	0002                	c.slli64	zero
     290:	0301                	addi	t1,t1,0
     292:	0902                	c.slli64	s2
     294:	0002                	c.slli64	zero
     296:	0301                	addi	t1,t1,0
     298:	0905                	addi	s2,s2,1
     29a:	0004                	.insn	2, 0x0004
     29c:	0301                	addi	t1,t1,0
     29e:	0901                	addi	s2,s2,0
     2a0:	0002                	c.slli64	zero
     2a2:	0301                	addi	t1,t1,0
     2a4:	0901                	addi	s2,s2,0
     2a6:	0008                	.insn	2, 0x0008
     2a8:	0301                	addi	t1,t1,0
     2aa:	0905                	addi	s2,s2,1
     2ac:	0002                	c.slli64	zero
     2ae:	0301                	addi	t1,t1,0
     2b0:	0901                	addi	s2,s2,0
     2b2:	0008                	.insn	2, 0x0008
     2b4:	0301                	addi	t1,t1,0
     2b6:	0902                	c.slli64	s2
     2b8:	0004                	.insn	2, 0x0004
     2ba:	0301                	addi	t1,t1,0
     2bc:	0901                	addi	s2,s2,0
     2be:	0004                	.insn	2, 0x0004
     2c0:	0301                	addi	t1,t1,0
     2c2:	0901                	addi	s2,s2,0
     2c4:	0004                	.insn	2, 0x0004
     2c6:	0301                	addi	t1,t1,0
     2c8:	0901                	addi	s2,s2,0
     2ca:	0004                	.insn	2, 0x0004
     2cc:	0301                	addi	t1,t1,0
     2ce:	0901                	addi	s2,s2,0
     2d0:	0004                	.insn	2, 0x0004
     2d2:	0301                	addi	t1,t1,0
     2d4:	0901                	addi	s2,s2,0
     2d6:	0004                	.insn	2, 0x0004
     2d8:	0301                	addi	t1,t1,0
     2da:	0901                	addi	s2,s2,0
     2dc:	0004                	.insn	2, 0x0004
     2de:	0301                	addi	t1,t1,0
     2e0:	0901                	addi	s2,s2,0
     2e2:	0004                	.insn	2, 0x0004
     2e4:	0301                	addi	t1,t1,0
     2e6:	0901                	addi	s2,s2,0
     2e8:	0004                	.insn	2, 0x0004
     2ea:	0301                	addi	t1,t1,0
     2ec:	0901                	addi	s2,s2,0
     2ee:	0004                	.insn	2, 0x0004
     2f0:	0301                	addi	t1,t1,0
     2f2:	0901                	addi	s2,s2,0
     2f4:	0004                	.insn	2, 0x0004
     2f6:	0301                	addi	t1,t1,0
     2f8:	0901                	addi	s2,s2,0
     2fa:	0004                	.insn	2, 0x0004
     2fc:	0301                	addi	t1,t1,0
     2fe:	0901                	addi	s2,s2,0
     300:	0004                	.insn	2, 0x0004
     302:	0301                	addi	t1,t1,0
     304:	0901                	addi	s2,s2,0
     306:	0004                	.insn	2, 0x0004
     308:	0301                	addi	t1,t1,0
     30a:	0901                	addi	s2,s2,0
     30c:	0004                	.insn	2, 0x0004
     30e:	0301                	addi	t1,t1,0
     310:	0901                	addi	s2,s2,0
     312:	0004                	.insn	2, 0x0004
     314:	0301                	addi	t1,t1,0
     316:	0901                	addi	s2,s2,0
     318:	0004                	.insn	2, 0x0004
     31a:	0301                	addi	t1,t1,0
     31c:	0901                	addi	s2,s2,0
     31e:	0004                	.insn	2, 0x0004
     320:	0301                	addi	t1,t1,0
     322:	0901                	addi	s2,s2,0
     324:	0004                	.insn	2, 0x0004
     326:	0301                	addi	t1,t1,0
     328:	0901                	addi	s2,s2,0
     32a:	0004                	.insn	2, 0x0004
     32c:	0301                	addi	t1,t1,0
     32e:	0901                	addi	s2,s2,0
     330:	0004                	.insn	2, 0x0004
     332:	0301                	addi	t1,t1,0
     334:	0901                	addi	s2,s2,0
     336:	0004                	.insn	2, 0x0004
     338:	0301                	addi	t1,t1,0
     33a:	0901                	addi	s2,s2,0
     33c:	0004                	.insn	2, 0x0004
     33e:	0301                	addi	t1,t1,0
     340:	0901                	addi	s2,s2,0
     342:	0004                	.insn	2, 0x0004
     344:	0301                	addi	t1,t1,0
     346:	0901                	addi	s2,s2,0
     348:	0004                	.insn	2, 0x0004
     34a:	0301                	addi	t1,t1,0
     34c:	0901                	addi	s2,s2,0
     34e:	0004                	.insn	2, 0x0004
     350:	0301                	addi	t1,t1,0
     352:	0901                	addi	s2,s2,0
     354:	0004                	.insn	2, 0x0004
     356:	0301                	addi	t1,t1,0
     358:	0901                	addi	s2,s2,0
     35a:	0004                	.insn	2, 0x0004
     35c:	0301                	addi	t1,t1,0
     35e:	0901                	addi	s2,s2,0
     360:	0004                	.insn	2, 0x0004
     362:	0301                	addi	t1,t1,0
     364:	0901                	addi	s2,s2,0
     366:	0004                	.insn	2, 0x0004
     368:	0301                	addi	t1,t1,0
     36a:	0901                	addi	s2,s2,0
     36c:	0004                	.insn	2, 0x0004
     36e:	0301                	addi	t1,t1,0
     370:	0901                	addi	s2,s2,0
     372:	0004                	.insn	2, 0x0004
     374:	0301                	addi	t1,t1,0
     376:	0901                	addi	s2,s2,0
     378:	0004                	.insn	2, 0x0004
     37a:	0301                	addi	t1,t1,0
     37c:	0905                	addi	s2,s2,1
     37e:	0004                	.insn	2, 0x0004
     380:	0301                	addi	t1,t1,0
     382:	0901                	addi	s2,s2,0
     384:	0008                	.insn	2, 0x0008
     386:	0301                	addi	t1,t1,0
     388:	0905                	addi	s2,s2,1
     38a:	0004                	.insn	2, 0x0004
     38c:	0301                	addi	t1,t1,0
     38e:	00080903          	lb	s2,0(a6)
     392:	0301                	addi	t1,t1,0
     394:	0901                	addi	s2,s2,0
     396:	0004                	.insn	2, 0x0004
     398:	0301                	addi	t1,t1,0
     39a:	00040903          	lb	s2,0(s0)
     39e:	0301                	addi	t1,t1,0
     3a0:	0902                	c.slli64	s2
     3a2:	0004                	.insn	2, 0x0004
     3a4:	0301                	addi	t1,t1,0
     3a6:	0901                	addi	s2,s2,0
     3a8:	0002                	c.slli64	zero
     3aa:	0301                	addi	t1,t1,0
     3ac:	0904                	addi	s1,sp,144
     3ae:	0004                	.insn	2, 0x0004
     3b0:	0301                	addi	t1,t1,0
     3b2:	0901                	addi	s2,s2,0
     3b4:	0004                	.insn	2, 0x0004
     3b6:	0301                	addi	t1,t1,0
     3b8:	0901                	addi	s2,s2,0
     3ba:	0002                	c.slli64	zero
     3bc:	0301                	addi	t1,t1,0
     3be:	0901                	addi	s2,s2,0
     3c0:	0002                	c.slli64	zero
     3c2:	0301                	addi	t1,t1,0
     3c4:	0901                	addi	s2,s2,0
     3c6:	0004                	.insn	2, 0x0004
     3c8:	0301                	addi	t1,t1,0
     3ca:	0902                	c.slli64	s2
     3cc:	0002                	c.slli64	zero
     3ce:	0301                	addi	t1,t1,0
     3d0:	0904                	addi	s1,sp,144
     3d2:	0004                	.insn	2, 0x0004
     3d4:	0301                	addi	t1,t1,0
     3d6:	0902                	c.slli64	s2
     3d8:	0002                	c.slli64	zero
     3da:	0301                	addi	t1,t1,0
     3dc:	0901                	addi	s2,s2,0
     3de:	0002                	c.slli64	zero
     3e0:	0301                	addi	t1,t1,0
     3e2:	0901                	addi	s2,s2,0
     3e4:	0002                	c.slli64	zero
     3e6:	0301                	addi	t1,t1,0
     3e8:	0901                	addi	s2,s2,0
     3ea:	0002                	c.slli64	zero
     3ec:	0301                	addi	t1,t1,0
     3ee:	0901                	addi	s2,s2,0
     3f0:	0002                	c.slli64	zero
     3f2:	0301                	addi	t1,t1,0
     3f4:	0901                	addi	s2,s2,0
     3f6:	0002                	c.slli64	zero
     3f8:	0301                	addi	t1,t1,0
     3fa:	0901                	addi	s2,s2,0
     3fc:	0002                	c.slli64	zero
     3fe:	0301                	addi	t1,t1,0
     400:	0901                	addi	s2,s2,0
     402:	0002                	c.slli64	zero
     404:	0301                	addi	t1,t1,0
     406:	0901                	addi	s2,s2,0
     408:	0002                	c.slli64	zero
     40a:	0301                	addi	t1,t1,0
     40c:	0901                	addi	s2,s2,0
     40e:	0002                	c.slli64	zero
     410:	0301                	addi	t1,t1,0
     412:	0901                	addi	s2,s2,0
     414:	0002                	c.slli64	zero
     416:	0301                	addi	t1,t1,0
     418:	0901                	addi	s2,s2,0
     41a:	0002                	c.slli64	zero
     41c:	0301                	addi	t1,t1,0
     41e:	0901                	addi	s2,s2,0
     420:	0002                	c.slli64	zero
     422:	0301                	addi	t1,t1,0
     424:	0901                	addi	s2,s2,0
     426:	0002                	c.slli64	zero
     428:	0301                	addi	t1,t1,0
     42a:	0901                	addi	s2,s2,0
     42c:	0002                	c.slli64	zero
     42e:	0301                	addi	t1,t1,0
     430:	0901                	addi	s2,s2,0
     432:	0002                	c.slli64	zero
     434:	0301                	addi	t1,t1,0
     436:	0901                	addi	s2,s2,0
     438:	0002                	c.slli64	zero
     43a:	0301                	addi	t1,t1,0
     43c:	0901                	addi	s2,s2,0
     43e:	0002                	c.slli64	zero
     440:	0301                	addi	t1,t1,0
     442:	0901                	addi	s2,s2,0
     444:	0002                	c.slli64	zero
     446:	0301                	addi	t1,t1,0
     448:	0901                	addi	s2,s2,0
     44a:	0002                	c.slli64	zero
     44c:	0301                	addi	t1,t1,0
     44e:	0901                	addi	s2,s2,0
     450:	0002                	c.slli64	zero
     452:	0301                	addi	t1,t1,0
     454:	0901                	addi	s2,s2,0
     456:	0002                	c.slli64	zero
     458:	0301                	addi	t1,t1,0
     45a:	0901                	addi	s2,s2,0
     45c:	0002                	c.slli64	zero
     45e:	0301                	addi	t1,t1,0
     460:	0901                	addi	s2,s2,0
     462:	0002                	c.slli64	zero
     464:	0301                	addi	t1,t1,0
     466:	0901                	addi	s2,s2,0
     468:	0002                	c.slli64	zero
     46a:	0301                	addi	t1,t1,0
     46c:	0901                	addi	s2,s2,0
     46e:	0002                	c.slli64	zero
     470:	0301                	addi	t1,t1,0
     472:	0901                	addi	s2,s2,0
     474:	0002                	c.slli64	zero
     476:	0301                	addi	t1,t1,0
     478:	0901                	addi	s2,s2,0
     47a:	0002                	c.slli64	zero
     47c:	0301                	addi	t1,t1,0
     47e:	0901                	addi	s2,s2,0
     480:	0002                	c.slli64	zero
     482:	0301                	addi	t1,t1,0
     484:	0901                	addi	s2,s2,0
     486:	0002                	c.slli64	zero
     488:	0301                	addi	t1,t1,0
     48a:	0901                	addi	s2,s2,0
     48c:	0002                	c.slli64	zero
     48e:	0301                	addi	t1,t1,0
     490:	0902                	c.slli64	s2
     492:	0002                	c.slli64	zero
     494:	0301                	addi	t1,t1,0
     496:	0901                	addi	s2,s2,0
     498:	0004                	.insn	2, 0x0004
     49a:	0301                	addi	t1,t1,0
     49c:	0901                	addi	s2,s2,0
     49e:	0004                	.insn	2, 0x0004
     4a0:	0301                	addi	t1,t1,0
     4a2:	0901                	addi	s2,s2,0
     4a4:	0002                	c.slli64	zero
     4a6:	0301                	addi	t1,t1,0
     4a8:	0901                	addi	s2,s2,0
     4aa:	0004                	.insn	2, 0x0004
     4ac:	0301                	addi	t1,t1,0
     4ae:	00040903          	lb	s2,0(s0)
     4b2:	0301                	addi	t1,t1,0
     4b4:	0901                	addi	s2,s2,0
     4b6:	0006                	c.slli	zero,0x1
     4b8:	0301                	addi	t1,t1,0
     4ba:	0902                	c.slli64	s2
     4bc:	0004                	.insn	2, 0x0004
     4be:	0301                	addi	t1,t1,0
     4c0:	0901                	addi	s2,s2,0
     4c2:	0002                	c.slli64	zero
     4c4:	0301                	addi	t1,t1,0
     4c6:	0901                	addi	s2,s2,0
     4c8:	0002                	c.slli64	zero
     4ca:	0301                	addi	t1,t1,0
     4cc:	0901                	addi	s2,s2,0
     4ce:	0002                	c.slli64	zero
     4d0:	0301                	addi	t1,t1,0
     4d2:	0901                	addi	s2,s2,0
     4d4:	0002                	c.slli64	zero
     4d6:	0301                	addi	t1,t1,0
     4d8:	0901                	addi	s2,s2,0
     4da:	0002                	c.slli64	zero
     4dc:	0301                	addi	t1,t1,0
     4de:	0901                	addi	s2,s2,0
     4e0:	0002                	c.slli64	zero
     4e2:	0301                	addi	t1,t1,0
     4e4:	0901                	addi	s2,s2,0
     4e6:	0002                	c.slli64	zero
     4e8:	0301                	addi	t1,t1,0
     4ea:	0901                	addi	s2,s2,0
     4ec:	0002                	c.slli64	zero
     4ee:	0301                	addi	t1,t1,0
     4f0:	0901                	addi	s2,s2,0
     4f2:	0002                	c.slli64	zero
     4f4:	0301                	addi	t1,t1,0
     4f6:	0901                	addi	s2,s2,0
     4f8:	0002                	c.slli64	zero
     4fa:	0301                	addi	t1,t1,0
     4fc:	0901                	addi	s2,s2,0
     4fe:	0002                	c.slli64	zero
     500:	0301                	addi	t1,t1,0
     502:	0901                	addi	s2,s2,0
     504:	0002                	c.slli64	zero
     506:	0301                	addi	t1,t1,0
     508:	0901                	addi	s2,s2,0
     50a:	0002                	c.slli64	zero
     50c:	0301                	addi	t1,t1,0
     50e:	0901                	addi	s2,s2,0
     510:	0002                	c.slli64	zero
     512:	0301                	addi	t1,t1,0
     514:	0901                	addi	s2,s2,0
     516:	0002                	c.slli64	zero
     518:	0301                	addi	t1,t1,0
     51a:	0901                	addi	s2,s2,0
     51c:	0002                	c.slli64	zero
     51e:	0301                	addi	t1,t1,0
     520:	0901                	addi	s2,s2,0
     522:	0002                	c.slli64	zero
     524:	0301                	addi	t1,t1,0
     526:	0901                	addi	s2,s2,0
     528:	0002                	c.slli64	zero
     52a:	0301                	addi	t1,t1,0
     52c:	0901                	addi	s2,s2,0
     52e:	0002                	c.slli64	zero
     530:	0301                	addi	t1,t1,0
     532:	0901                	addi	s2,s2,0
     534:	0002                	c.slli64	zero
     536:	0301                	addi	t1,t1,0
     538:	0901                	addi	s2,s2,0
     53a:	0002                	c.slli64	zero
     53c:	0301                	addi	t1,t1,0
     53e:	0901                	addi	s2,s2,0
     540:	0002                	c.slli64	zero
     542:	0301                	addi	t1,t1,0
     544:	0901                	addi	s2,s2,0
     546:	0002                	c.slli64	zero
     548:	0301                	addi	t1,t1,0
     54a:	0901                	addi	s2,s2,0
     54c:	0002                	c.slli64	zero
     54e:	0301                	addi	t1,t1,0
     550:	0901                	addi	s2,s2,0
     552:	0002                	c.slli64	zero
     554:	0301                	addi	t1,t1,0
     556:	0901                	addi	s2,s2,0
     558:	0002                	c.slli64	zero
     55a:	0301                	addi	t1,t1,0
     55c:	0901                	addi	s2,s2,0
     55e:	0002                	c.slli64	zero
     560:	0301                	addi	t1,t1,0
     562:	0901                	addi	s2,s2,0
     564:	0002                	c.slli64	zero
     566:	0301                	addi	t1,t1,0
     568:	0901                	addi	s2,s2,0
     56a:	0002                	c.slli64	zero
     56c:	0301                	addi	t1,t1,0
     56e:	0901                	addi	s2,s2,0
     570:	0002                	c.slli64	zero
     572:	0301                	addi	t1,t1,0
     574:	0902                	c.slli64	s2
     576:	0002                	c.slli64	zero
     578:	0301                	addi	t1,t1,0
     57a:	0901                	addi	s2,s2,0
     57c:	0002                	c.slli64	zero
     57e:	0901                	addi	s2,s2,0
     580:	0004                	.insn	2, 0x0004
     582:	0100                	addi	s0,sp,128
     584:	8f01                	sub	a4,a4,s0
     586:	0014                	.insn	2, 0x0014
     588:	0200                	addi	s0,sp,256
     58a:	3d00                	fld	fs0,56(a0)
     58c:	0001                	nop
     58e:	0100                	addi	s0,sp,128
     590:	fb01                	bnez	a4,4a0 <_start-0x7ffffb60>
     592:	0a0e                	slli	s4,s4,0x3
     594:	0100                	addi	s0,sp,128
     596:	0101                	addi	sp,sp,0
     598:	0001                	nop
     59a:	0000                	unimp
     59c:	2e01                	sext.w	t3,t3
     59e:	2f2e                	fld	ft10,200(sp)
     5a0:	6d6d6f63          	bltu	s10,s6,c7e <_start-0x7ffff382>
     5a4:	2f006e6f          	jal	t3,6894 <_start-0x7fff976c>
     5a8:	2f74706f          	j	4809e <_start-0x7ffb7f62>
     5ac:	6972                	ld	s2,280(sp)
     5ae:	2f766373          	csrrsi	t1,0x2f7,12
     5b2:	6972                	ld	s2,280(sp)
     5b4:	36766373          	csrrsi	t1,0x367,12
     5b8:	2d34                	fld	fa3,88(a0)
     5ba:	6e75                	lui	t3,0x1d
     5bc:	776f6e6b          	.insn	4, 0x776f6e6b
     5c0:	2d6e                	fld	fs10,216(sp)
     5c2:	6c65                	lui	s8,0x19
     5c4:	2f66                	fld	ft10,88(sp)
     5c6:	6e69                	lui	t3,0x1a
     5c8:	64756c63          	bltu	a0,t2,c20 <_start-0x7ffff3e0>
     5cc:	2f65                	addiw	t5,t5,25 # 1b019 <_start-0x7ffe4fe7>
     5ce:	616d                	addi	sp,sp,240
     5d0:	6e696863          	bltu	s2,t1,cc0 <_start-0x7ffff340>
     5d4:	0065                	c.nop	25
     5d6:	74706f2f          	.insn	4, 0x74706f2f
     5da:	7369722f          	.insn	4, 0x7369722f
     5de:	722f7663          	bgeu	t5,sp,d0a <_start-0x7ffff2f6>
     5e2:	7369                	lui	t1,0xffffa
     5e4:	34367663          	bgeu	a2,gp,930 <_start-0x7ffff6d0>
     5e8:	752d                	lui	a0,0xfffeb
     5ea:	6b6e                	ld	s6,216(sp)
     5ec:	6f6e                	ld	t5,216(sp)
     5ee:	652d6e77          	.insn	4, 0x652d6e77
     5f2:	666c                	ld	a1,200(a2)
     5f4:	636e692f          	.insn	4, 0x636e692f
     5f8:	756c                	ld	a1,232(a0)
     5fa:	6564                	ld	s1,200(a0)
     5fc:	7379732f          	.insn	4, 0x7379732f
     600:	2f00                	fld	fs0,24(a4)
     602:	2f74706f          	j	480f8 <_start-0x7ffb7f08>
     606:	6972                	ld	s2,280(sp)
     608:	2f766373          	csrrsi	t1,0x2f7,12
     60c:	696c                	ld	a1,208(a0)
     60e:	2f62                	fld	ft10,24(sp)
     610:	2f636367          	.insn	4, 0x2f636367
     614:	6972                	ld	s2,280(sp)
     616:	36766373          	csrrsi	t1,0x367,12
     61a:	2d34                	fld	fa3,88(a0)
     61c:	6e75                	lui	t3,0x1d
     61e:	776f6e6b          	.insn	4, 0x776f6e6b
     622:	2d6e                	fld	fs10,216(sp)
     624:	6c65                	lui	s8,0x19
     626:	2f66                	fld	ft10,88(sp)
     628:	3431                	addiw	s0,s0,-20
     62a:	322e                	fld	ft4,232(sp)
     62c:	302e                	fld	ft0,232(sp)
     62e:	636e692f          	.insn	4, 0x636e692f
     632:	756c                	ld	a1,232(a0)
     634:	6564                	ld	s1,200(a0)
     636:	2f00                	fld	fs0,24(a4)
     638:	2f74706f          	j	4812e <_start-0x7ffb7ed2>
     63c:	6972                	ld	s2,280(sp)
     63e:	2f766373          	csrrsi	t1,0x2f7,12
     642:	6972                	ld	s2,280(sp)
     644:	36766373          	csrrsi	t1,0x367,12
     648:	2d34                	fld	fa3,88(a0)
     64a:	6e75                	lui	t3,0x1d
     64c:	776f6e6b          	.insn	4, 0x776f6e6b
     650:	2d6e                	fld	fs10,216(sp)
     652:	6c65                	lui	s8,0x19
     654:	2f66                	fld	ft10,88(sp)
     656:	6e69                	lui	t3,0x1a
     658:	64756c63          	bltu	a0,t2,cb0 <_start-0x7ffff350>
     65c:	0065                	c.nop	25
     65e:	7300                	ld	s0,32(a4)
     660:	7379                	lui	t1,0xffffe
     662:	6c6c6163          	bltu	s8,t1,d24 <_start-0x7ffff2dc>
     666:	00632e73          	csrrs	t3,0x6,t1
     66a:	0001                	nop
     66c:	5f00                	lw	s0,56(a4)
     66e:	6564                	ld	s1,200(a0)
     670:	6166                	ld	sp,88(sp)
     672:	6c75                	lui	s8,0x1d
     674:	5f74                	lw	a3,124(a4)
     676:	7974                	ld	a3,240(a0)
     678:	6570                	ld	a2,200(a0)
     67a:	00682e73          	csrrs	t3,0x6,a6
     67e:	0002                	c.slli64	zero
     680:	5f00                	lw	s0,56(a4)
     682:	69647473          	csrrci	s0,0x696,8
     686:	746e                	ld	s0,248(sp)
     688:	682e                	ld	a6,200(sp)
     68a:	0300                	addi	s0,sp,384
     68c:	0000                	unimp
     68e:	64647473          	csrrci	s0,hviprio1,8
     692:	6665                	lui	a2,0x19
     694:	682e                	ld	a6,200(sp)
     696:	0400                	addi	s0,sp,512
     698:	0000                	unimp
     69a:	61647473          	csrrci	s0,0x616,8
     69e:	6772                	ld	a4,280(sp)
     6a0:	682e                	ld	a6,200(sp)
     6a2:	0400                	addi	s0,sp,512
     6a4:	0000                	unimp
     6a6:	69727473          	csrrci	s0,0x697,4
     6aa:	676e                	ld	a4,216(sp)
     6ac:	682e                	ld	a6,200(sp)
     6ae:	0500                	addi	s0,sp,640
     6b0:	0000                	unimp
     6b2:	69647473          	csrrci	s0,0x696,8
     6b6:	00682e6f          	jal	t3,826bc <_start-0x7ff7d944>
     6ba:	0005                	c.nop	1
     6bc:	3c00                	fld	fs0,56(s0)
     6be:	7562                	ld	a0,56(sp)
     6c0:	6c69                	lui	s8,0x1a
     6c2:	2d74                	fld	fa3,216(a0)
     6c4:	6e69                	lui	t3,0x1a
     6c6:	003e                	c.slli	zero,0xf
     6c8:	0000                	unimp
     6ca:	0000                	unimp
     6cc:	0305                	addi	t1,t1,1 # ffffffffffffe001 <__global_pointer$+0xffffffff7fffc7b9>
     6ce:	0900                	addi	s0,sp,144
     6d0:	1802                	slli	a6,a6,0x20
     6d2:	0002                	c.slli64	zero
     6d4:	0080                	addi	s0,sp,64
     6d6:	0000                	unimp
     6d8:	0300                	addi	s0,sp,384
     6da:	03a5                	addi	t2,t2,9
     6dc:	0501                	addi	a0,a0,0 # fffffffffffeb000 <__global_pointer$+0xffffffff7ffe97b8>
     6de:	0305                	addi	t1,t1,1
     6e0:	0901                	addi	s2,s2,0
     6e2:	0000                	unimp
     6e4:	0301                	addi	t1,t1,0
     6e6:	0901                	addi	s2,s2,0
     6e8:	0000                	unimp
     6ea:	0501                	addi	a0,a0,0
     6ec:	0606                	slli	a2,a2,0x1
     6ee:	00090003          	lb	zero,0(s2)
     6f2:	0100                	addi	s0,sp,128
     6f4:	0c05                	addi	s8,s8,1 # 1a001 <_start-0x7ffe5fff>
     6f6:	02090003          	lb	zero,32(s2)
     6fa:	0100                	addi	s0,sp,128
     6fc:	0505                	addi	a0,a0,1
     6fe:	0306                	slli	t1,t1,0x1
     700:	0901                	addi	s2,s2,0
     702:	0004                	.insn	2, 0x0004
     704:	0501                	addi	a0,a0,0
     706:	060c                	addi	a1,sp,768
     708:	00090003          	lb	zero,0(s2)
     70c:	0100                	addi	s0,sp,128
     70e:	0305                	addi	t1,t1,1
     710:	06090103          	lb	sp,96(s2)
     714:	0100                	addi	s0,sp,128
     716:	1505                	addi	a0,a0,-31
     718:	0306                	slli	t1,t1,0x1
     71a:	02097cef          	jal	s9,9773a <_start-0x7ff688c6>
     71e:	0100                	addi	s0,sp,128
     720:	0305                	addi	t1,t1,1
     722:	00090103          	lb	sp,0(s2)
     726:	0100                	addi	s0,sp,128
     728:	0205                	addi	tp,tp,1 # 1 <_start-0x7fffffff>
     72a:	00090103          	lb	sp,0(s2)
     72e:	0100                	addi	s0,sp,128
     730:	0c05                	addi	s8,s8,1
     732:	0306                	slli	t1,t1,0x1
     734:	0900                	addi	s0,sp,144
     736:	0000                	unimp
     738:	0501                	addi	a0,a0,0
     73a:	0301                	addi	t1,t1,0
     73c:	0901                	addi	s2,s2,0
     73e:	000a                	c.slli	zero,0x2
     740:	0501                	addi	a0,a0,0
     742:	02030617          	auipc	a2,0x2030
     746:	0209                	addi	tp,tp,2 # 2 <_start-0x7ffffffe>
     748:	0100                	addi	s0,sp,128
     74a:	0305                	addi	t1,t1,1
     74c:	00090103          	lb	sp,0(s2)
     750:	0100                	addi	s0,sp,128
     752:	00090103          	lb	sp,0(s2)
     756:	0100                	addi	s0,sp,128
     758:	0205                	addi	tp,tp,1 # 1 <_start-0x7fffffff>
     75a:	00090203          	lb	tp,0(s2)
     75e:	0100                	addi	s0,sp,128
     760:	0b05                	addi	s6,s6,1
     762:	0200                	addi	s0,sp,256
     764:	0104                	addi	s1,sp,128
     766:	0306                	slli	t1,t1,0x1
     768:	0900                	addi	s0,sp,144
     76a:	0000                	unimp
     76c:	0501                	addi	a0,a0,0
     76e:	0009                	c.nop	2
     770:	0402                	c.slli64	s0
     772:	0601                	addi	a2,a2,0 # 2030742 <_start-0x7dfcf8be>
     774:	06090003          	lb	zero,96(s2)
     778:	0100                	addi	s0,sp,128
     77a:	0b05                	addi	s6,s6,1
     77c:	0200                	addi	s0,sp,256
     77e:	0104                	addi	s1,sp,128
     780:	0306                	slli	t1,t1,0x1
     782:	0900                	addi	s0,sp,144
     784:	0000                	unimp
     786:	0501                	addi	a0,a0,0
     788:	0009                	c.nop	2
     78a:	0402                	c.slli64	s0
     78c:	0301                	addi	t1,t1,0
     78e:	0900                	addi	s0,sp,144
     790:	0004                	.insn	2, 0x0004
     792:	0501                	addi	a0,a0,0
     794:	0602                	c.slli64	a2
     796:	06090103          	lb	sp,96(s2)
     79a:	0100                	addi	s0,sp,128
     79c:	0c05                	addi	s8,s8,1
     79e:	0306                	slli	t1,t1,0x1
     7a0:	0900                	addi	s0,sp,144
     7a2:	0000                	unimp
     7a4:	0501                	addi	a0,a0,0
     7a6:	0301                	addi	t1,t1,0
     7a8:	0901                	addi	s2,s2,0
     7aa:	0008                	.insn	2, 0x0008
     7ac:	0601                	addi	a2,a2,0
     7ae:	09018e03          	lb	t3,144(gp) # 800018d8 <__global_pointer$+0x90>
     7b2:	0002                	c.slli64	zero
     7b4:	0501                	addi	a0,a0,0
     7b6:	09030303          	lb	t1,144(t1)
     7ba:	0004                	.insn	2, 0x0004
     7bc:	0301                	addi	t1,t1,0
     7be:	090e                	slli	s2,s2,0x3
     7c0:	0008                	.insn	2, 0x0008
     7c2:	0501                	addi	a0,a0,0
     7c4:	0601                	addi	a2,a2,0
     7c6:	00090103          	lb	sp,0(s2)
     7ca:	0100                	addi	s0,sp,128
     7cc:	1805                	addi	a6,a6,-31
     7ce:	0306                	slli	t1,t1,0x1
     7d0:	7ee2                	ld	t4,56(sp)
     7d2:	0809                	addi	a6,a6,2
     7d4:	0100                	addi	s0,sp,128
     7d6:	0305                	addi	t1,t1,1
     7d8:	00090103          	lb	sp,0(s2)
     7dc:	0100                	addi	s0,sp,128
     7de:	00090103          	lb	sp,0(s2)
     7e2:	0100                	addi	s0,sp,128
     7e4:	0205                	addi	tp,tp,1 # 1 <_start-0x7fffffff>
     7e6:	00090203          	lb	tp,0(s2)
     7ea:	0100                	addi	s0,sp,128
     7ec:	0b05                	addi	s6,s6,1
     7ee:	0200                	addi	s0,sp,256
     7f0:	0104                	addi	s1,sp,128
     7f2:	0306                	slli	t1,t1,0x1
     7f4:	0900                	addi	s0,sp,144
     7f6:	0000                	unimp
     7f8:	0501                	addi	a0,a0,0
     7fa:	0009                	c.nop	2
     7fc:	0402                	c.slli64	s0
     7fe:	0601                	addi	a2,a2,0
     800:	06090003          	lb	zero,96(s2)
     804:	0100                	addi	s0,sp,128
     806:	0b05                	addi	s6,s6,1
     808:	0200                	addi	s0,sp,256
     80a:	0104                	addi	s1,sp,128
     80c:	0306                	slli	t1,t1,0x1
     80e:	0900                	addi	s0,sp,144
     810:	0000                	unimp
     812:	0501                	addi	a0,a0,0
     814:	0009                	c.nop	2
     816:	0402                	c.slli64	s0
     818:	0301                	addi	t1,t1,0
     81a:	0900                	addi	s0,sp,144
     81c:	0004                	.insn	2, 0x0004
     81e:	0501                	addi	a0,a0,0
     820:	0602                	c.slli64	a2
     822:	04090103          	lb	sp,64(s2)
     826:	0100                	addi	s0,sp,128
     828:	0905                	addi	s2,s2,1
     82a:	0306                	slli	t1,t1,0x1
     82c:	0900                	addi	s0,sp,144
     82e:	0000                	unimp
     830:	0501                	addi	a0,a0,0
     832:	0301                	addi	t1,t1,0
     834:	0901                	addi	s2,s2,0
     836:	0008                	.insn	2, 0x0008
     838:	0501                	addi	a0,a0,0
     83a:	0622                	slli	a2,a2,0x8
     83c:	02090203          	lb	tp,32(s2)
     840:	0100                	addi	s0,sp,128
     842:	0505                	addi	a0,a0,1
     844:	08090103          	lb	sp,128(s2)
     848:	0100                	addi	s0,sp,128
     84a:	0c05                	addi	s8,s8,1
     84c:	00090003          	lb	zero,0(s2)
     850:	0100                	addi	s0,sp,128
     852:	0905                	addi	s2,s2,1
     854:	06090103          	lb	sp,96(s2)
     858:	0100                	addi	s0,sp,128
     85a:	1605                	addi	a2,a2,-31
     85c:	0306                	slli	t1,t1,0x1
     85e:	0900                	addi	s0,sp,144
     860:	0000                	unimp
     862:	0501                	addi	a0,a0,0
     864:	0309                	addi	t1,t1,2
     866:	0900                	addi	s0,sp,144
     868:	0002                	c.slli64	zero
     86a:	0501                	addi	a0,a0,0
     86c:	060c                	addi	a1,sp,768
     86e:	04097f03          	.insn	4, 0x04097f03
     872:	0100                	addi	s0,sp,128
     874:	0105                	addi	sp,sp,1
     876:	0306                	slli	t1,t1,0x1
     878:	00060903          	lb	s2,0(a2)
     87c:	0601                	addi	a2,a2,0
     87e:	08091d03          	lh	s10,128(s2)
     882:	0100                	addi	s0,sp,128
     884:	0305                	addi	t1,t1,1
     886:	00090103          	lb	sp,0(s2)
     88a:	0100                	addi	s0,sp,128
     88c:	00090803          	lb	a6,0(s2)
     890:	0100                	addi	s0,sp,128
     892:	00090003          	lb	zero,0(s2)
     896:	0100                	addi	s0,sp,128
     898:	0200                	addi	s0,sp,256
     89a:	0104                	addi	s1,sp,128
     89c:	00090003          	lb	zero,0(s2)
     8a0:	0100                	addi	s0,sp,128
     8a2:	0200                	addi	s0,sp,256
     8a4:	0204                	addi	s1,sp,256
     8a6:	00090003          	lb	zero,0(s2)
     8aa:	0100                	addi	s0,sp,128
     8ac:	0200                	addi	s0,sp,256
     8ae:	0204                	addi	s1,sp,256
     8b0:	00090003          	lb	zero,0(s2)
     8b4:	0100                	addi	s0,sp,128
     8b6:	0200                	addi	s0,sp,256
     8b8:	0204                	addi	s1,sp,256
     8ba:	00090003          	lb	zero,0(s2)
     8be:	0100                	addi	s0,sp,128
     8c0:	04090003          	lb	zero,64(s2)
     8c4:	0100                	addi	s0,sp,128
     8c6:	00090003          	lb	zero,0(s2)
     8ca:	0100                	addi	s0,sp,128
     8cc:	0200                	addi	s0,sp,256
     8ce:	0204                	addi	s1,sp,256
     8d0:	0306                	slli	t1,t1,0x1
     8d2:	0900                	addi	s0,sp,144
     8d4:	0000                	unimp
     8d6:	0001                	nop
     8d8:	0402                	c.slli64	s0
     8da:	00030603          	lb	a2,0(t1)
     8de:	0209                	addi	tp,tp,2 # 2 <_start-0x7ffffffe>
     8e0:	0100                	addi	s0,sp,128
     8e2:	0c090003          	lb	zero,192(s2)
     8e6:	0100                	addi	s0,sp,128
     8e8:	0200                	addi	s0,sp,256
     8ea:	0304                	addi	s1,sp,384
     8ec:	0306                	slli	t1,t1,0x1
     8ee:	0900                	addi	s0,sp,144
     8f0:	0000                	unimp
     8f2:	0001                	nop
     8f4:	0402                	c.slli64	s0
     8f6:	0605                	addi	a2,a2,1
     8f8:	0a090003          	lb	zero,160(s2)
     8fc:	0100                	addi	s0,sp,128
     8fe:	08090003          	lb	zero,128(s2)
     902:	0100                	addi	s0,sp,128
     904:	00090103          	lb	sp,0(s2)
     908:	0100                	addi	s0,sp,128
     90a:	00090003          	lb	zero,0(s2)
     90e:	0100                	addi	s0,sp,128
     910:	0200                	addi	s0,sp,256
     912:	0104                	addi	s1,sp,128
     914:	00090003          	lb	zero,0(s2)
     918:	0100                	addi	s0,sp,128
     91a:	0200                	addi	s0,sp,256
     91c:	0204                	addi	s1,sp,256
     91e:	00090003          	lb	zero,0(s2)
     922:	0100                	addi	s0,sp,128
     924:	0200                	addi	s0,sp,256
     926:	0204                	addi	s1,sp,256
     928:	00090003          	lb	zero,0(s2)
     92c:	0100                	addi	s0,sp,128
     92e:	0200                	addi	s0,sp,256
     930:	0204                	addi	s1,sp,256
     932:	00090003          	lb	zero,0(s2)
     936:	0100                	addi	s0,sp,128
     938:	04090003          	lb	zero,64(s2)
     93c:	0100                	addi	s0,sp,128
     93e:	00090003          	lb	zero,0(s2)
     942:	0100                	addi	s0,sp,128
     944:	0200                	addi	s0,sp,256
     946:	0204                	addi	s1,sp,256
     948:	0306                	slli	t1,t1,0x1
     94a:	0900                	addi	s0,sp,144
     94c:	0000                	unimp
     94e:	0001                	nop
     950:	0402                	c.slli64	s0
     952:	00030603          	lb	a2,0(t1)
     956:	0209                	addi	tp,tp,2 # 2 <_start-0x7ffffffe>
     958:	0100                	addi	s0,sp,128
     95a:	0c090003          	lb	zero,192(s2)
     95e:	0100                	addi	s0,sp,128
     960:	0200                	addi	s0,sp,256
     962:	0304                	addi	s1,sp,384
     964:	0306                	slli	t1,t1,0x1
     966:	0900                	addi	s0,sp,144
     968:	0000                	unimp
     96a:	0001                	nop
     96c:	0402                	c.slli64	s0
     96e:	0605                	addi	a2,a2,1
     970:	0a090003          	lb	zero,160(s2)
     974:	0100                	addi	s0,sp,128
     976:	04090003          	lb	zero,64(s2)
     97a:	0100                	addi	s0,sp,128
     97c:	0105                	addi	sp,sp,1
     97e:	0306                	slli	t1,t1,0x1
     980:	00000903          	lb	s2,0(zero) # 0 <_start-0x80000000>
     984:	0601                	addi	a2,a2,0
     986:	02090303          	lb	t1,32(s2)
     98a:	0100                	addi	s0,sp,128
     98c:	0305                	addi	t1,t1,1
     98e:	00090103          	lb	sp,0(s2)
     992:	0100                	addi	s0,sp,128
     994:	1205                	addi	tp,tp,-31 # ffffffffffffffe1 <__global_pointer$+0xffffffff7fffe799>
     996:	0306                	slli	t1,t1,0x1
     998:	0900                	addi	s0,sp,144
     99a:	0000                	unimp
     99c:	0501                	addi	a0,a0,0
     99e:	0318                	addi	a4,sp,384
     9a0:	0900                	addi	s0,sp,144
     9a2:	0004                	.insn	2, 0x0004
     9a4:	0501                	addi	a0,a0,0
     9a6:	030a                	slli	t1,t1,0x2
     9a8:	0900                	addi	s0,sp,144
     9aa:	0004                	.insn	2, 0x0004
     9ac:	0501                	addi	a0,a0,0
     9ae:	01030603          	lb	a2,16(t1)
     9b2:	0809                	addi	a6,a6,2
     9b4:	0100                	addi	s0,sp,128
     9b6:	0905                	addi	s2,s2,1
     9b8:	00090003          	lb	zero,0(s2)
     9bc:	0100                	addi	s0,sp,128
     9be:	0105                	addi	sp,sp,1
     9c0:	02090403          	lb	s0,32(s2)
     9c4:	0100                	addi	s0,sp,128
     9c6:	0305                	addi	t1,t1,1
     9c8:	04090103          	lb	sp,64(s2)
     9cc:	0100                	addi	s0,sp,128
     9ce:	0105                	addi	sp,sp,1
     9d0:	08090403          	lb	s0,128(s2)
     9d4:	0100                	addi	s0,sp,128
     9d6:	0305                	addi	t1,t1,1
     9d8:	04090103          	lb	sp,64(s2)
     9dc:	0100                	addi	s0,sp,128
     9de:	0105                	addi	sp,sp,1
     9e0:	04090403          	lb	s0,64(s2)
     9e4:	0100                	addi	s0,sp,128
     9e6:	0305                	addi	t1,t1,1
     9e8:	04090103          	lb	sp,64(s2)
     9ec:	0100                	addi	s0,sp,128
     9ee:	00097b03          	.insn	4, 0x00097b03
     9f2:	0100                	addi	s0,sp,128
     9f4:	0105                	addi	sp,sp,1
     9f6:	08090903          	lb	s2,128(s2)
     9fa:	0100                	addi	s0,sp,128
     9fc:	0305                	addi	t1,t1,1
     9fe:	04090403          	lb	s0,64(s2)
     a02:	0100                	addi	s0,sp,128
     a04:	0105                	addi	sp,sp,1
     a06:	0306                	slli	t1,t1,0x1
     a08:	0901                	addi	s2,s2,0
     a0a:	0004                	.insn	2, 0x0004
     a0c:	0601                	addi	a2,a2,0
     a0e:	06090603          	lb	a2,96(s2)
     a12:	0100                	addi	s0,sp,128
     a14:	0305                	addi	t1,t1,1
     a16:	04090103          	lb	sp,64(s2)
     a1a:	0100                	addi	s0,sp,128
     a1c:	00097803          	.insn	4, 0x00097803
     a20:	0100                	addi	s0,sp,128
     a22:	04090903          	lb	s2,64(s2)
     a26:	0100                	addi	s0,sp,128
     a28:	0105                	addi	sp,sp,1
     a2a:	0306                	slli	t1,t1,0x1
     a2c:	0901                	addi	s2,s2,0
     a2e:	0000                	unimp
     a30:	0601                	addi	a2,a2,0
     a32:	08090303          	lb	t1,128(s2)
     a36:	0100                	addi	s0,sp,128
     a38:	0305                	addi	t1,t1,1
     a3a:	00090303          	lb	t1,0(s2)
     a3e:	0100                	addi	s0,sp,128
     a40:	0e05                	addi	t3,t3,1 # 1a001 <_start-0x7ffe5fff>
     a42:	0200                	addi	s0,sp,256
     a44:	0104                	addi	s1,sp,128
     a46:	00090003          	lb	zero,0(s2)
     a4a:	0100                	addi	s0,sp,128
     a4c:	0105                	addi	sp,sp,1
     a4e:	0306                	slli	t1,t1,0x1
     a50:	0901                	addi	s2,s2,0
     a52:	0002                	c.slli64	zero
     a54:	0501                	addi	a0,a0,0
     a56:	000e                	c.slli	zero,0x3
     a58:	0402                	c.slli64	s0
     a5a:	0601                	addi	a2,a2,0
     a5c:	02097f03          	.insn	4, 0x02097f03
     a60:	0100                	addi	s0,sp,128
     a62:	0105                	addi	sp,sp,1
     a64:	02090403          	lb	s0,32(s2)
     a68:	0100                	addi	s0,sp,128
     a6a:	0305                	addi	t1,t1,1
     a6c:	04090203          	lb	tp,64(s2)
     a70:	0100                	addi	s0,sp,128
     a72:	00096a03          	lwu	s4,0(s2)
     a76:	0100                	addi	s0,sp,128
     a78:	0c091703          	lh	a4,192(s2)
     a7c:	0100                	addi	s0,sp,128
     a7e:	0105                	addi	sp,sp,1
     a80:	0306                	slli	t1,t1,0x1
     a82:	0901                	addi	s2,s2,0
     a84:	0000                	unimp
     a86:	0601                	addi	a2,a2,0
     a88:	08093703          	ld	a4,128(s2)
     a8c:	0100                	addi	s0,sp,128
     a8e:	0305                	addi	t1,t1,1
     a90:	04090103          	lb	sp,64(s2)
     a94:	0100                	addi	s0,sp,128
     a96:	00090103          	lb	sp,0(s2)
     a9a:	0100                	addi	s0,sp,128
     a9c:	00090103          	lb	sp,0(s2)
     aa0:	0100                	addi	s0,sp,128
     aa2:	1105                	addi	sp,sp,-31
     aa4:	0200                	addi	s0,sp,256
     aa6:	0104                	addi	s1,sp,128
     aa8:	00090003          	lb	zero,0(s2)
     aac:	0100                	addi	s0,sp,128
     aae:	1b05                	addi	s6,s6,-31
     ab0:	0306                	slli	t1,t1,0x1
     ab2:	0902                	c.slli64	s2
     ab4:	0008                	.insn	2, 0x0008
     ab6:	0001                	nop
     ab8:	0402                	c.slli64	s0
     aba:	0302                	c.slli64	t1
     abc:	0900                	addi	s0,sp,144
     abe:	0002                	c.slli64	zero
     ac0:	0001                	nop
     ac2:	0402                	c.slli64	s0
     ac4:	0301                	addi	t1,t1,0
     ac6:	0900                	addi	s0,sp,144
     ac8:	0004                	.insn	2, 0x0004
     aca:	0001                	nop
     acc:	0402                	c.slli64	s0
     ace:	0304                	addi	s1,sp,384
     ad0:	0900                	addi	s0,sp,144
     ad2:	0006                	c.slli	zero,0x1
     ad4:	0501                	addi	a0,a0,0
     ad6:	0402000f          	.insn	4, 0x0402000f
     ada:	0304                	addi	s1,sp,384
     adc:	0900                	addi	s0,sp,144
     ade:	0002                	c.slli64	zero
     ae0:	0501                	addi	a0,a0,0
     ae2:	0605                	addi	a2,a2,1
     ae4:	04090103          	lb	sp,64(s2)
     ae8:	0100                	addi	s0,sp,128
     aea:	0705                	addi	a4,a4,1
     aec:	0306                	slli	t1,t1,0x1
     aee:	0900                	addi	s0,sp,144
     af0:	0000                	unimp
     af2:	0501                	addi	a0,a0,0
     af4:	0018                	.insn	2, 0x0018
     af6:	0402                	c.slli64	s0
     af8:	0602                	c.slli64	a2
     afa:	02097d03          	.insn	4, 0x02097d03
     afe:	0100                	addi	s0,sp,128
     b00:	1105                	addi	sp,sp,-31
     b02:	0200                	addi	s0,sp,256
     b04:	0104                	addi	s1,sp,128
     b06:	00090003          	lb	zero,0(s2)
     b0a:	0100                	addi	s0,sp,128
     b0c:	0505                	addi	a0,a0,1
     b0e:	0a090203          	lb	tp,160(s2)
     b12:	0100                	addi	s0,sp,128
     b14:	1405                	addi	s0,s0,-31
     b16:	0306                	slli	t1,t1,0x1
     b18:	0900                	addi	s0,sp,144
     b1a:	0000                	unimp
     b1c:	0501                	addi	a0,a0,0
     b1e:	0402001b          	addiw	zero,tp,64 # 40 <_start-0x7fffffc0>
     b22:	0302                	c.slli64	t1
     b24:	0900                	addi	s0,sp,144
     b26:	0004                	.insn	2, 0x0004
     b28:	0301                	addi	t1,t1,0
     b2a:	0900                	addi	s0,sp,144
     b2c:	0002                	c.slli64	zero
     b2e:	0001                	nop
     b30:	0402                	c.slli64	s0
     b32:	0301                	addi	t1,t1,0
     b34:	0900                	addi	s0,sp,144
     b36:	0004                	.insn	2, 0x0004
     b38:	0501                	addi	a0,a0,0
     b3a:	03030603          	lb	a2,48(t1)
     b3e:	0409                	addi	s0,s0,2
     b40:	0100                	addi	s0,sp,128
     b42:	0b05                	addi	s6,s6,1
     b44:	0306                	slli	t1,t1,0x1
     b46:	0900                	addi	s0,sp,144
     b48:	0000                	unimp
     b4a:	0501                	addi	a0,a0,0
     b4c:	02030603          	lb	a2,32(t1)
     b50:	0409                	addi	s0,s0,2
     b52:	0100                	addi	s0,sp,128
     b54:	097fa703          	lw	a4,151(t6)
     b58:	0000                	unimp
     b5a:	0501                	addi	a0,a0,0
     b5c:	0601                	addi	a2,a2,0
     b5e:	0900da03          	lhu	s4,144(ra)
     b62:	0006                	c.slli	zero,0x1
     b64:	0601                	addi	a2,a2,0
     b66:	0901e203          	lwu	tp,144(gp) # 800018d8 <__global_pointer$+0x90>
     b6a:	0006                	c.slli	zero,0x1
     b6c:	0501                	addi	a0,a0,0
     b6e:	09010303          	lb	t1,144(sp)
     b72:	0000                	unimp
     b74:	0501                	addi	a0,a0,0
     b76:	062a                	slli	a2,a2,0xa
     b78:	00090003          	lb	zero,0(s2)
     b7c:	0100                	addi	s0,sp,128
     b7e:	3105                	addiw	sp,sp,-31
     b80:	06090003          	lb	zero,96(s2)
     b84:	0100                	addi	s0,sp,128
     b86:	0605                	addi	a2,a2,1
     b88:	02090003          	lb	zero,32(s2)
     b8c:	0100                	addi	s0,sp,128
     b8e:	0e05                	addi	t3,t3,1
     b90:	0306                	slli	t1,t1,0x1
     b92:	0908                	addi	a0,sp,144
     b94:	0002                	c.slli64	zero
     b96:	0501                	addi	a0,a0,0
     b98:	061d                	addi	a2,a2,7
     b9a:	00090003          	lb	zero,0(s2)
     b9e:	0100                	addi	s0,sp,128
     ba0:	0b05                	addi	s6,s6,1
     ba2:	06097f03          	.insn	4, 0x06097f03
     ba6:	0100                	addi	s0,sp,128
     ba8:	0e05                	addi	t3,t3,1
     baa:	02090103          	lb	sp,32(s2)
     bae:	0100                	addi	s0,sp,128
     bb0:	0705                	addi	a4,a4,1
     bb2:	0306                	slli	t1,t1,0x1
     bb4:	0901                	addi	s2,s2,0
     bb6:	0004                	.insn	2, 0x0004
     bb8:	0501                	addi	a0,a0,0
     bba:	0610                	addi	a2,sp,768
     bbc:	00090003          	lb	zero,0(s2)
     bc0:	0100                	addi	s0,sp,128
     bc2:	0905                	addi	s2,s2,1
     bc4:	02090003          	lb	zero,32(s2)
     bc8:	0100                	addi	s0,sp,128
     bca:	0e05                	addi	t3,t3,1
     bcc:	02090003          	lb	zero,32(s2)
     bd0:	0100                	addi	s0,sp,128
     bd2:	0c05                	addi	s8,s8,1
     bd4:	04090003          	lb	zero,64(s2)
     bd8:	0100                	addi	s0,sp,128
     bda:	0e05                	addi	t3,t3,1
     bdc:	0306                	slli	t1,t1,0x1
     bde:	097f 0004 0501 0303 	.insn	10, 0x0903030305010004097f
     be6:	0903 
     be8:	0004                	.insn	2, 0x0004
     bea:	0501                	addi	a0,a0,0
     bec:	0601                	addi	a2,a2,0
     bee:	00090103          	lb	sp,0(s2)
     bf2:	0100                	addi	s0,sp,128
     bf4:	0e05                	addi	t3,t3,1
     bf6:	0306                	slli	t1,t1,0x1
     bf8:	00040977          	.insn	4, 0x00040977
     bfc:	0501                	addi	a0,a0,0
     bfe:	0622                	slli	a2,a2,0x8
     c00:	00090003          	lb	zero,0(s2)
     c04:	0100                	addi	s0,sp,128
     c06:	0e05                	addi	t3,t3,1
     c08:	02090003          	lb	zero,32(s2)
     c0c:	0100                	addi	s0,sp,128
     c0e:	1005                	c.nop	-31
     c10:	04097f03          	.insn	4, 0x04097f03
     c14:	0100                	addi	s0,sp,128
     c16:	0705                	addi	a4,a4,1
     c18:	0306                	slli	t1,t1,0x1
     c1a:	0902                	c.slli64	s2
     c1c:	0002                	c.slli64	zero
     c1e:	0501                	addi	a0,a0,0
     c20:	0610                	addi	a2,sp,768
     c22:	00090003          	lb	zero,0(s2)
     c26:	0100                	addi	s0,sp,128
     c28:	0905                	addi	s2,s2,1
     c2a:	02090003          	lb	zero,32(s2)
     c2e:	0100                	addi	s0,sp,128
     c30:	0e05                	addi	t3,t3,1
     c32:	02090003          	lb	zero,32(s2)
     c36:	0100                	addi	s0,sp,128
     c38:	0c05                	addi	s8,s8,1
     c3a:	04090003          	lb	zero,64(s2)
     c3e:	0100                	addi	s0,sp,128
     c40:	0e05                	addi	t3,t3,1
     c42:	0306                	slli	t1,t1,0x1
     c44:	097f 0004 0501 0301 	.insn	10, 0x090c030105010004097f
     c4c:	090c 
     c4e:	0006                	c.slli	zero,0x1
     c50:	0501                	addi	a0,a0,0
     c52:	09010303          	lb	t1,144(sp)
     c56:	0000                	unimp
     c58:	0501                	addi	a0,a0,0
     c5a:	0619                	addi	a2,a2,6
     c5c:	00090003          	lb	zero,0(s2)
     c60:	0100                	addi	s0,sp,128
     c62:	2005                	.insn	2, 0x2005
     c64:	04090003          	lb	zero,64(s2)
     c68:	0100                	addi	s0,sp,128
     c6a:	0605                	addi	a2,a2,1
     c6c:	02090003          	lb	zero,32(s2)
     c70:	0100                	addi	s0,sp,128
     c72:	0e05                	addi	t3,t3,1
     c74:	0306                	slli	t1,t1,0x1
     c76:	0002090b          	.insn	4, 0x0002090b
     c7a:	0501                	addi	a0,a0,0
     c7c:	061d                	addi	a2,a2,7
     c7e:	00090003          	lb	zero,0(s2)
     c82:	0100                	addi	s0,sp,128
     c84:	0b05                	addi	s6,s6,1
     c86:	02097f03          	.insn	4, 0x02097f03
     c8a:	0100                	addi	s0,sp,128
     c8c:	0e05                	addi	t3,t3,1
     c8e:	02090103          	lb	sp,32(s2)
     c92:	0100                	addi	s0,sp,128
     c94:	0705                	addi	a4,a4,1
     c96:	0306                	slli	t1,t1,0x1
     c98:	0901                	addi	s2,s2,0
     c9a:	0004                	.insn	2, 0x0004
     c9c:	0501                	addi	a0,a0,0
     c9e:	0609                	addi	a2,a2,2
     ca0:	00090003          	lb	zero,0(s2)
     ca4:	0100                	addi	s0,sp,128
     ca6:	0c05                	addi	s8,s8,1
     ca8:	02090003          	lb	zero,32(s2)
     cac:	0100                	addi	s0,sp,128
     cae:	0e05                	addi	t3,t3,1
     cb0:	0306                	slli	t1,t1,0x1
     cb2:	097f 0004 0501 0303 	.insn	10, 0x0903030305010004097f
     cba:	0903 
     cbc:	0004                	.insn	2, 0x0004
     cbe:	0501                	addi	a0,a0,0
     cc0:	0601                	addi	a2,a2,0
     cc2:	00090103          	lb	sp,0(s2)
     cc6:	0100                	addi	s0,sp,128
     cc8:	0505                	addi	a0,a0,1
     cca:	0306                	slli	t1,t1,0x1
     ccc:	0972                	slli	s2,s2,0x1c
     cce:	0004                	.insn	2, 0x0004
     cd0:	0301                	addi	t1,t1,0
     cd2:	0901                	addi	s2,s2,0
     cd4:	0000                	unimp
     cd6:	0301                	addi	t1,t1,0
     cd8:	0901                	addi	s2,s2,0
     cda:	0000                	unimp
     cdc:	0301                	addi	t1,t1,0
     cde:	0901                	addi	s2,s2,0
     ce0:	0000                	unimp
     ce2:	0501                	addi	a0,a0,0
     ce4:	7d03060f          	.insn	4, 0x7d03060f
     ce8:	0009                	c.nop	2
     cea:	0100                	addi	s0,sp,128
     cec:	0505                	addi	a0,a0,1
     cee:	0306                	slli	t1,t1,0x1
     cf0:	0905                	addi	s2,s2,1
     cf2:	0016                	c.slli	zero,0x5
     cf4:	0301                	addi	t1,t1,0
     cf6:	0901                	addi	s2,s2,0
     cf8:	0000                	unimp
     cfa:	0501                	addi	a0,a0,0
     cfc:	030e                	slli	t1,t1,0x3
     cfe:	0900                	addi	s0,sp,144
     d00:	0000                	unimp
     d02:	0501                	addi	a0,a0,0
     d04:	0622                	slli	a2,a2,0x8
     d06:	00090003          	lb	zero,0(s2)
     d0a:	0100                	addi	s0,sp,128
     d0c:	0e05                	addi	t3,t3,1
     d0e:	02090003          	lb	zero,32(s2)
     d12:	0100                	addi	s0,sp,128
     d14:	1005                	c.nop	-31
     d16:	04097f03          	.insn	4, 0x04097f03
     d1a:	0100                	addi	s0,sp,128
     d1c:	0705                	addi	a4,a4,1
     d1e:	0306                	slli	t1,t1,0x1
     d20:	0902                	c.slli64	s2
     d22:	0002                	c.slli64	zero
     d24:	0501                	addi	a0,a0,0
     d26:	0609                	addi	a2,a2,2
     d28:	00090003          	lb	zero,0(s2)
     d2c:	0100                	addi	s0,sp,128
     d2e:	0c05                	addi	s8,s8,1
     d30:	02090003          	lb	zero,32(s2)
     d34:	0100                	addi	s0,sp,128
     d36:	0e05                	addi	t3,t3,1
     d38:	0306                	slli	t1,t1,0x1
     d3a:	097f 0004 0501 0301 	.insn	10, 0x090b030105010004097f
     d42:	090b 
     d44:	0006                	c.slli	zero,0x1
     d46:	0501                	addi	a0,a0,0
     d48:	09010303          	lb	t1,144(sp)
     d4c:	0000                	unimp
     d4e:	0301                	addi	t1,t1,0
     d50:	0901                	addi	s2,s2,0
     d52:	0000                	unimp
     d54:	0501                	addi	a0,a0,0
     d56:	030a                	slli	t1,t1,0x2
     d58:	0900                	addi	s0,sp,144
     d5a:	0000                	unimp
     d5c:	0501                	addi	a0,a0,0
     d5e:	7f03060f          	.insn	4, 0x7f03060f
     d62:	0609                	addi	a2,a2,2
     d64:	0100                	addi	s0,sp,128
     d66:	0505                	addi	a0,a0,1
     d68:	0306                	slli	t1,t1,0x1
     d6a:	0902                	c.slli64	s2
     d6c:	0002                	c.slli64	zero
     d6e:	0501                	addi	a0,a0,0
     d70:	0606                	slli	a2,a2,0x1
     d72:	00090003          	lb	zero,0(s2)
     d76:	0100                	addi	s0,sp,128
     d78:	0a05                	addi	s4,s4,1
     d7a:	0306                	slli	t1,t1,0x1
     d7c:	097f 0002 0501 0303 	.insn	10, 0x0902030305010002097f
     d84:	0902 
     d86:	0006                	c.slli	zero,0x1
     d88:	0501                	addi	a0,a0,0
     d8a:	0601                	addi	a2,a2,0
     d8c:	00090103          	lb	sp,0(s2)
     d90:	0100                	addi	s0,sp,128
     d92:	0f05                	addi	t5,t5,1
     d94:	06097c03          	.insn	4, 0x06097c03
     d98:	0100                	addi	s0,sp,128
     d9a:	0105                	addi	sp,sp,1
     d9c:	0306                	slli	t1,t1,0x1
     d9e:	00040907          	.insn	4, 0x00040907
     da2:	0501                	addi	a0,a0,0
     da4:	09010303          	lb	t1,144(sp)
     da8:	0000                	unimp
     daa:	0301                	addi	t1,t1,0
     dac:	0901                	addi	s2,s2,0
     dae:	0000                	unimp
     db0:	0501                	addi	a0,a0,0
     db2:	030e                	slli	t1,t1,0x3
     db4:	0900                	addi	s0,sp,144
     db6:	0000                	unimp
     db8:	0501                	addi	a0,a0,0
     dba:	7f03060f          	.insn	4, 0x7f03060f
     dbe:	0409                	addi	s0,s0,2
     dc0:	0100                	addi	s0,sp,128
     dc2:	0e05                	addi	t3,t3,1
     dc4:	0200                	addi	s0,sp,256
     dc6:	0104                	addi	s1,sp,128
     dc8:	02090103          	lb	sp,32(s2)
     dcc:	0100                	addi	s0,sp,128
     dce:	0505                	addi	a0,a0,1
     dd0:	0306                	slli	t1,t1,0x1
     dd2:	0901                	addi	s2,s2,0
     dd4:	0006                	c.slli	zero,0x1
     dd6:	0501                	addi	a0,a0,0
     dd8:	0606                	slli	a2,a2,0x1
     dda:	00090003          	lb	zero,0(s2)
     dde:	0100                	addi	s0,sp,128
     de0:	0e05                	addi	t3,t3,1
     de2:	0306                	slli	t1,t1,0x1
     de4:	097f 0002 0501 0303 	.insn	10, 0x0902030305010002097f
     dec:	0902 
     dee:	0006                	c.slli	zero,0x1
     df0:	0501                	addi	a0,a0,0
     df2:	0601                	addi	a2,a2,0
     df4:	00090103          	lb	sp,0(s2)
     df8:	0100                	addi	s0,sp,128
     dfa:	0f05                	addi	t5,t5,1
     dfc:	06097c03          	.insn	4, 0x06097c03
     e00:	0100                	addi	s0,sp,128
     e02:	0105                	addi	sp,sp,1
     e04:	0306                	slli	t1,t1,0x1
     e06:	7e9e                	ld	t4,480(sp)
     e08:	0409                	addi	s0,s0,2
     e0a:	0100                	addi	s0,sp,128
     e0c:	2a05                	addiw	s4,s4,1
     e0e:	0306                	slli	t1,t1,0x1
     e10:	0909                	addi	s2,s2,2
     e12:	0022                	c.slli	zero,0x8
     e14:	0501                	addi	a0,a0,0
     e16:	090c030f          	.insn	4, 0x090c030f
     e1a:	0004                	.insn	2, 0x0004
     e1c:	0501                	addi	a0,a0,0
     e1e:	0305                	addi	t1,t1,1
     e20:	0904                	addi	s1,sp,144
     e22:	0002                	c.slli64	zero
     e24:	0501                	addi	a0,a0,0
     e26:	68030603          	lb	a2,1664(t1)
     e2a:	0809                	addi	a6,a6,2
     e2c:	0100                	addi	s0,sp,128
     e2e:	00090103          	lb	sp,0(s2)
     e32:	0100                	addi	s0,sp,128
     e34:	00090103          	lb	sp,0(s2)
     e38:	0100                	addi	s0,sp,128
     e3a:	00090103          	lb	sp,0(s2)
     e3e:	0100                	addi	s0,sp,128
     e40:	00090103          	lb	sp,0(s2)
     e44:	0100                	addi	s0,sp,128
     e46:	00090103          	lb	sp,0(s2)
     e4a:	0100                	addi	s0,sp,128
     e4c:	00090203          	lb	tp,0(s2)
     e50:	0100                	addi	s0,sp,128
     e52:	0505                	addi	a0,a0,1
     e54:	00090103          	lb	sp,0(s2)
     e58:	0100                	addi	s0,sp,128
     e5a:	2a05                	addiw	s4,s4,1
     e5c:	00090003          	lb	zero,0(s2)
     e60:	0100                	addi	s0,sp,128
     e62:	1005                	c.nop	-31
     e64:	0306                	slli	t1,t1,0x1
     e66:	0900                	addi	s0,sp,144
     e68:	0000                	unimp
     e6a:	0501                	addi	a0,a0,0
     e6c:	032a                	slli	t1,t1,0xa
     e6e:	0900                	addi	s0,sp,144
     e70:	0004                	.insn	2, 0x0004
     e72:	0501                	addi	a0,a0,0
     e74:	01030607          	.insn	4, 0x01030607
     e78:	0409                	addi	s0,s0,2
     e7a:	0100                	addi	s0,sp,128
     e7c:	0a05                	addi	s4,s4,1
     e7e:	0306                	slli	t1,t1,0x1
     e80:	0900                	addi	s0,sp,144
     e82:	0000                	unimp
     e84:	0501                	addi	a0,a0,0
     e86:	02030607          	.insn	4, 0x02030607
     e8a:	0409                	addi	s0,s0,2
     e8c:	0100                	addi	s0,sp,128
     e8e:	0a05                	addi	s4,s4,1
     e90:	0306                	slli	t1,t1,0x1
     e92:	0900                	addi	s0,sp,144
     e94:	0000                	unimp
     e96:	0501                	addi	a0,a0,0
     e98:	01030607          	.insn	4, 0x01030607
     e9c:	0209                	addi	tp,tp,2 # 2 <_start-0x7ffffffe>
     e9e:	0100                	addi	s0,sp,128
     ea0:	2a05                	addiw	s4,s4,1
     ea2:	04097c03          	.insn	4, 0x04097c03
     ea6:	0100                	addi	s0,sp,128
     ea8:	1005                	c.nop	-31
     eaa:	0306                	slli	t1,t1,0x1
     eac:	0900                	addi	s0,sp,144
     eae:	0000                	unimp
     eb0:	0501                	addi	a0,a0,0
     eb2:	032a                	slli	t1,t1,0xa
     eb4:	0900                	addi	s0,sp,144
     eb6:	0004                	.insn	2, 0x0004
     eb8:	0501                	addi	a0,a0,0
     eba:	0605                	addi	a2,a2,1
     ebc:	04090603          	lb	a2,64(s2)
     ec0:	0100                	addi	s0,sp,128
     ec2:	0805                	addi	a6,a6,1
     ec4:	0306                	slli	t1,t1,0x1
     ec6:	0900                	addi	s0,sp,144
     ec8:	0000                	unimp
     eca:	0501                	addi	a0,a0,0
     ecc:	0605                	addi	a2,a2,1
     ece:	04090303          	lb	t1,64(s2)
     ed2:	0100                	addi	s0,sp,128
     ed4:	00090103          	lb	sp,0(s2)
     ed8:	0100                	addi	s0,sp,128
     eda:	00090103          	lb	sp,0(s2)
     ede:	0100                	addi	s0,sp,128
     ee0:	00090103          	lb	sp,0(s2)
     ee4:	0100                	addi	s0,sp,128
     ee6:	00090103          	lb	sp,0(s2)
     eea:	0100                	addi	s0,sp,128
     eec:	00090103          	lb	sp,0(s2)
     ef0:	0100                	addi	s0,sp,128
     ef2:	0805                	addi	a6,a6,1
     ef4:	0306                	slli	t1,t1,0x1
     ef6:	0978                	addi	a4,sp,156
     ef8:	0000                	unimp
     efa:	0501                	addi	a0,a0,0
     efc:	030a                	slli	t1,t1,0x2
     efe:	0904                	addi	s1,sp,144
     f00:	0002                	c.slli64	zero
     f02:	0501                	addi	a0,a0,0
     f04:	0902030f          	.insn	4, 0x0902030f
     f08:	0004                	.insn	2, 0x0004
     f0a:	0501                	addi	a0,a0,0
     f0c:	097f030b          	.insn	4, 0x097f030b
     f10:	0002                	c.slli64	zero
     f12:	0301                	addi	t1,t1,0
     f14:	0902                	c.slli64	s2
     f16:	0002                	c.slli64	zero
     f18:	0501                	addi	a0,a0,0
     f1a:	0305                	addi	t1,t1,1
     f1c:	00020903          	lb	s2,0(tp) # 0 <_start-0x80000000>
     f20:	0601                	addi	a2,a2,0
     f22:	04090003          	lb	zero,64(s2)
     f26:	0100                	addi	s0,sp,128
     f28:	1305                	addi	t1,t1,-31
     f2a:	0306                	slli	t1,t1,0x1
     f2c:	0900                	addi	s0,sp,144
     f2e:	0000                	unimp
     f30:	0501                	addi	a0,a0,0
     f32:	0312                	slli	t1,t1,0x4
     f34:	0900                	addi	s0,sp,144
     f36:	0004                	.insn	2, 0x0004
     f38:	0501                	addi	a0,a0,0
     f3a:	0305                	addi	t1,t1,1
     f3c:	0900                	addi	s0,sp,144
     f3e:	0004                	.insn	2, 0x0004
     f40:	0501                	addi	a0,a0,0
     f42:	030e                	slli	t1,t1,0x3
     f44:	093c                	addi	a5,sp,152
     f46:	0018                	.insn	2, 0x0018
     f48:	0501                	addi	a0,a0,0
     f4a:	0305                	addi	t1,t1,1
     f4c:	0944                	addi	s1,sp,148
     f4e:	0004                	.insn	2, 0x0004
     f50:	0501                	addi	a0,a0,0
     f52:	030c                	addi	a1,sp,384
     f54:	080900db          	.insn	4, 0x080900db
     f58:	0100                	addi	s0,sp,128
     f5a:	0905                	addi	s2,s2,1
     f5c:	0306                	slli	t1,t1,0x1
     f5e:	7fbc                	ld	a5,120(a5)
     f60:	0409                	addi	s0,s0,2
     f62:	0100                	addi	s0,sp,128
     f64:	1305                	addi	t1,t1,-31
     f66:	0306                	slli	t1,t1,0x1
     f68:	0900                	addi	s0,sp,144
     f6a:	0000                	unimp
     f6c:	0501                	addi	a0,a0,0
     f6e:	0609                	addi	a2,a2,2
     f70:	04090103          	lb	sp,64(s2)
     f74:	0100                	addi	s0,sp,128
     f76:	0e05                	addi	t3,t3,1
     f78:	0306                	slli	t1,t1,0x1
     f7a:	0900                	addi	s0,sp,144
     f7c:	0000                	unimp
     f7e:	0501                	addi	a0,a0,0
     f80:	030c                	addi	a1,sp,384
     f82:	0900                	addi	s0,sp,144
     f84:	0004                	.insn	2, 0x0004
     f86:	0501                	addi	a0,a0,0
     f88:	0609                	addi	a2,a2,2
     f8a:	04090103          	lb	sp,64(s2)
     f8e:	0100                	addi	s0,sp,128
     f90:	0c05                	addi	s8,s8,1
     f92:	0306                	slli	t1,t1,0x1
     f94:	0900                	addi	s0,sp,144
     f96:	0000                	unimp
     f98:	0501                	addi	a0,a0,0
     f9a:	061d                	addi	a2,a2,7
     f9c:	0a097d03          	.insn	4, 0x0a097d03
     fa0:	0100                	addi	s0,sp,128
     fa2:	0705                	addi	a4,a4,1
     fa4:	02090003          	lb	zero,32(s2)
     fa8:	0100                	addi	s0,sp,128
     faa:	0905                	addi	s2,s2,1
     fac:	00090103          	lb	sp,0(s2)
     fb0:	0100                	addi	s0,sp,128
     fb2:	1f05                	addi	t5,t5,-31
     fb4:	0306                	slli	t1,t1,0x1
     fb6:	0900                	addi	s0,sp,144
     fb8:	0000                	unimp
     fba:	0501                	addi	a0,a0,0
     fbc:	0324                	addi	s1,sp,392
     fbe:	0900                	addi	s0,sp,144
     fc0:	000c                	.insn	2, 0x000c
     fc2:	0501                	addi	a0,a0,0
     fc4:	09000313          	li	t1,144
     fc8:	0002                	c.slli64	zero
     fca:	0501                	addi	a0,a0,0
     fcc:	0609                	addi	a2,a2,2
     fce:	04090103          	lb	sp,64(s2)
     fd2:	0100                	addi	s0,sp,128
     fd4:	0e05                	addi	t3,t3,1
     fd6:	0306                	slli	t1,t1,0x1
     fd8:	0900                	addi	s0,sp,144
     fda:	0000                	unimp
     fdc:	0501                	addi	a0,a0,0
     fde:	030c                	addi	a1,sp,384
     fe0:	0900                	addi	s0,sp,144
     fe2:	0004                	.insn	2, 0x0004
     fe4:	0501                	addi	a0,a0,0
     fe6:	0609                	addi	a2,a2,2
     fe8:	04090103          	lb	sp,64(s2)
     fec:	0100                	addi	s0,sp,128
     fee:	0c05                	addi	s8,s8,1
     ff0:	0306                	slli	t1,t1,0x1
     ff2:	0900                	addi	s0,sp,144
     ff4:	0000                	unimp
     ff6:	0501                	addi	a0,a0,0
     ff8:	06030607          	.insn	4, 0x06030607
     ffc:	0c09                	addi	s8,s8,2
     ffe:	0100                	addi	s0,sp,128
    1000:	1105                	addi	sp,sp,-31
    1002:	0306                	slli	t1,t1,0x1
    1004:	0900                	addi	s0,sp,144
    1006:	0000                	unimp
    1008:	0501                	addi	a0,a0,0
    100a:	01030607          	.insn	4, 0x01030607
    100e:	0409                	addi	s0,s0,2
    1010:	0100                	addi	s0,sp,128
    1012:	1105                	addi	sp,sp,-31
    1014:	0306                	slli	t1,t1,0x1
    1016:	097f 0000 0501 0313 	.insn	10, 0x0961031305010000097f
    101e:	0961 
    1020:	0002                	c.slli64	zero
    1022:	0501                	addi	a0,a0,0
    1024:	2c030607          	.insn	4, 0x2c030607
    1028:	0209                	addi	tp,tp,2 # 2 <_start-0x7ffffffe>
    102a:	0100                	addi	s0,sp,128
    102c:	0a05                	addi	s4,s4,1
    102e:	0306                	slli	t1,t1,0x1
    1030:	0900                	addi	s0,sp,144
    1032:	0000                	unimp
    1034:	0501                	addi	a0,a0,0
    1036:	0901030f          	.insn	4, 0x0901030f
    103a:	0004                	.insn	2, 0x0004
    103c:	0501                	addi	a0,a0,0
    103e:	0326                	slli	t1,t1,0x9
    1040:	0900                	addi	s0,sp,144
    1042:	0002                	c.slli64	zero
    1044:	0501                	addi	a0,a0,0
    1046:	76030607          	.insn	4, 0x76030607
    104a:	0409                	addi	s0,s0,2
    104c:	0100                	addi	s0,sp,128
    104e:	0a05                	addi	s4,s4,1
    1050:	0306                	slli	t1,t1,0x1
    1052:	0900                	addi	s0,sp,144
    1054:	0000                	unimp
    1056:	0501                	addi	a0,a0,0
    1058:	02030607          	.insn	4, 0x02030607
    105c:	0a09                	addi	s4,s4,2
    105e:	0100                	addi	s0,sp,128
    1060:	1305                	addi	t1,t1,-31
    1062:	0306                	slli	t1,t1,0x1
    1064:	0000095b          	.insn	4, 0x095b
    1068:	0501                	addi	a0,a0,0
    106a:	09250307          	.insn	4, 0x09250307
    106e:	0002                	c.slli64	zero
    1070:	0501                	addi	a0,a0,0
    1072:	030a                	slli	t1,t1,0x2
    1074:	097e                	slli	s2,s2,0x1f
    1076:	0002                	c.slli64	zero
    1078:	0501                	addi	a0,a0,0
    107a:	05030607          	.insn	4, 0x05030607
    107e:	0409                	addi	s0,s0,2
    1080:	0100                	addi	s0,sp,128
    1082:	00090103          	lb	sp,0(s2)
    1086:	0100                	addi	s0,sp,128
    1088:	1305                	addi	t1,t1,-31
    108a:	0306                	slli	t1,t1,0x1
    108c:	00000957          	.insn	4, 0x0957
    1090:	0501                	addi	a0,a0,0
    1092:	09290307          	.insn	4, 0x09290307
    1096:	0002                	c.slli64	zero
    1098:	0501                	addi	a0,a0,0
    109a:	09570313          	addi	t1,a4,149
    109e:	0002                	c.slli64	zero
    10a0:	0501                	addi	a0,a0,0
    10a2:	32030607          	.insn	4, 0x32030607
    10a6:	0409                	addi	s0,s0,2
    10a8:	0100                	addi	s0,sp,128
    10aa:	0c05                	addi	s8,s8,1
    10ac:	0306                	slli	t1,t1,0x1
    10ae:	0900                	addi	s0,sp,144
    10b0:	0000                	unimp
    10b2:	0501                	addi	a0,a0,0
    10b4:	01030607          	.insn	4, 0x01030607
    10b8:	0209                	addi	tp,tp,2 # 2 <_start-0x7ffffffe>
    10ba:	0100                	addi	s0,sp,128
    10bc:	1305                	addi	t1,t1,-31
    10be:	0306                	slli	t1,t1,0x1
    10c0:	094d                	addi	s2,s2,19
    10c2:	0000                	unimp
    10c4:	0501                	addi	a0,a0,0
    10c6:	09330307          	.insn	4, 0x09330307
    10ca:	0002                	c.slli64	zero
    10cc:	0601                	addi	a2,a2,0
    10ce:	02090403          	lb	s0,32(s2)
    10d2:	0100                	addi	s0,sp,128
    10d4:	0200                	addi	s0,sp,256
    10d6:	0104                	addi	s1,sp,128
    10d8:	0306                	slli	t1,t1,0x1
    10da:	0900                	addi	s0,sp,144
    10dc:	0004                	.insn	2, 0x0004
    10de:	0601                	addi	a2,a2,0
    10e0:	08090103          	lb	sp,128(s2)
    10e4:	0100                	addi	s0,sp,128
    10e6:	0306                	slli	t1,t1,0x1
    10e8:	097f 0000 0301 0901 	.insn	10, 0x0002090103010000097f
    10f0:	0002 
    10f2:	0601                	addi	a2,a2,0
    10f4:	02090403          	lb	s0,32(s2)
    10f8:	0100                	addi	s0,sp,128
    10fa:	0e05                	addi	t3,t3,1
    10fc:	0306                	slli	t1,t1,0x1
    10fe:	0900                	addi	s0,sp,144
    1100:	0000                	unimp
    1102:	0501                	addi	a0,a0,0
    1104:	000a                	c.slli	zero,0x2
    1106:	0402                	c.slli64	s0
    1108:	0301                	addi	t1,t1,0
    110a:	0900                	addi	s0,sp,144
    110c:	0008                	.insn	2, 0x0008
    110e:	0501                	addi	a0,a0,0
    1110:	02030607          	.insn	4, 0x02030607
    1114:	0409                	addi	s0,s0,2
    1116:	0100                	addi	s0,sp,128
    1118:	0a05                	addi	s4,s4,1
    111a:	0306                	slli	t1,t1,0x1
    111c:	0900                	addi	s0,sp,144
    111e:	0000                	unimp
    1120:	0501                	addi	a0,a0,0
    1122:	0015                	c.nop	5
    1124:	0402                	c.slli64	s0
    1126:	0301                	addi	t1,t1,0
    1128:	0900                	addi	s0,sp,144
    112a:	0004                	.insn	2, 0x0004
    112c:	0501                	addi	a0,a0,0
    112e:	0020                	addi	s0,sp,8
    1130:	0402                	c.slli64	s0
    1132:	0601                	addi	a2,a2,0
    1134:	08090303          	lb	t1,128(s2)
    1138:	0100                	addi	s0,sp,128
    113a:	1205                	addi	tp,tp,-31 # ffffffffffffffe1 <__global_pointer$+0xffffffff7fffe799>
    113c:	0200                	addi	s0,sp,256
    113e:	0104                	addi	s1,sp,128
    1140:	0306                	slli	t1,t1,0x1
    1142:	0900                	addi	s0,sp,144
    1144:	0000                	unimp
    1146:	0501                	addi	a0,a0,0
    1148:	0020                	addi	s0,sp,8
    114a:	0402                	c.slli64	s0
    114c:	0301                	addi	t1,t1,0
    114e:	0900                	addi	s0,sp,144
    1150:	0004                	.insn	2, 0x0004
    1152:	0501                	addi	a0,a0,0
    1154:	0609                	addi	a2,a2,2
    1156:	04097e03          	.insn	4, 0x04097e03
    115a:	0100                	addi	s0,sp,128
    115c:	1705                	addi	a4,a4,-31
    115e:	0306                	slli	t1,t1,0x1
    1160:	0900                	addi	s0,sp,144
    1162:	0000                	unimp
    1164:	0501                	addi	a0,a0,0
    1166:	0014                	.insn	2, 0x0014
    1168:	0402                	c.slli64	s0
    116a:	0301                	addi	t1,t1,0
    116c:	0900                	addi	s0,sp,144
    116e:	0008                	.insn	2, 0x0008
    1170:	0501                	addi	a0,a0,0
    1172:	0034                	addi	a3,sp,8
    1174:	0402                	c.slli64	s0
    1176:	0601                	addi	a2,a2,0
    1178:	04090003          	lb	zero,64(s2)
    117c:	0100                	addi	s0,sp,128
    117e:	0b05                	addi	s6,s6,1
    1180:	0306                	slli	t1,t1,0x1
    1182:	0901                	addi	s2,s2,0
    1184:	0004                	.insn	2, 0x0004
    1186:	0601                	addi	a2,a2,0
    1188:	02090003          	lb	zero,32(s2)
    118c:	0100                	addi	s0,sp,128
    118e:	3e05                	addiw	t3,t3,-31
    1190:	0200                	addi	s0,sp,256
    1192:	0304                	addi	s1,sp,384
    1194:	06097f03          	.insn	4, 0x06097f03
    1198:	0100                	addi	s0,sp,128
    119a:	3405                	addiw	s0,s0,-31
    119c:	0200                	addi	s0,sp,256
    119e:	0104                	addi	s1,sp,128
    11a0:	02090003          	lb	zero,32(s2)
    11a4:	0100                	addi	s0,sp,128
    11a6:	2005                	.insn	2, 0x2005
    11a8:	0200                	addi	s0,sp,256
    11aa:	0104                	addi	s1,sp,128
    11ac:	04090203          	lb	tp,64(s2)
    11b0:	0100                	addi	s0,sp,128
    11b2:	1205                	addi	tp,tp,-31 # ffffffffffffffe1 <__global_pointer$+0xffffffff7fffe799>
    11b4:	0200                	addi	s0,sp,256
    11b6:	0104                	addi	s1,sp,128
    11b8:	0306                	slli	t1,t1,0x1
    11ba:	0900                	addi	s0,sp,144
    11bc:	0000                	unimp
    11be:	0501                	addi	a0,a0,0
    11c0:	0020                	addi	s0,sp,8
    11c2:	0402                	c.slli64	s0
    11c4:	0301                	addi	t1,t1,0
    11c6:	0900                	addi	s0,sp,144
    11c8:	0004                	.insn	2, 0x0004
    11ca:	0501                	addi	a0,a0,0
    11cc:	0609                	addi	a2,a2,2
    11ce:	06090103          	lb	sp,96(s2)
    11d2:	0100                	addi	s0,sp,128
    11d4:	04090103          	lb	sp,64(s2)
    11d8:	0100                	addi	s0,sp,128
    11da:	0a05                	addi	s4,s4,1
    11dc:	0306                	slli	t1,t1,0x1
    11de:	0900                	addi	s0,sp,144
    11e0:	0000                	unimp
    11e2:	0501                	addi	a0,a0,0
    11e4:	004d                	c.nop	19
    11e6:	0402                	c.slli64	s0
    11e8:	0605                	addi	a2,a2,1
    11ea:	02097e03          	.insn	4, 0x02097e03
    11ee:	0100                	addi	s0,sp,128
    11f0:	2005                	.insn	2, 0x2005
    11f2:	0200                	addi	s0,sp,256
    11f4:	0104                	addi	s1,sp,128
    11f6:	02090003          	lb	zero,32(s2)
    11fa:	0100                	addi	s0,sp,128
    11fc:	1205                	addi	tp,tp,-31 # ffffffffffffffe1 <__global_pointer$+0xffffffff7fffe799>
    11fe:	0200                	addi	s0,sp,256
    1200:	0104                	addi	s1,sp,128
    1202:	0306                	slli	t1,t1,0x1
    1204:	0900                	addi	s0,sp,144
    1206:	0000                	unimp
    1208:	0501                	addi	a0,a0,0
    120a:	0020                	addi	s0,sp,8
    120c:	0402                	c.slli64	s0
    120e:	0301                	addi	t1,t1,0
    1210:	0900                	addi	s0,sp,144
    1212:	0004                	.insn	2, 0x0004
    1214:	0001                	nop
    1216:	0402                	c.slli64	s0
    1218:	0302                	c.slli64	t1
    121a:	0900                	addi	s0,sp,144
    121c:	0002                	c.slli64	zero
    121e:	0501                	addi	a0,a0,0
    1220:	0032                	c.slli	zero,0xc
    1222:	0402                	c.slli64	s0
    1224:	0304                	addi	s1,sp,384
    1226:	0900                	addi	s0,sp,144
    1228:	0004                	.insn	2, 0x0004
    122a:	0501                	addi	a0,a0,0
    122c:	0014                	.insn	2, 0x0014
    122e:	0402                	c.slli64	s0
    1230:	0601                	addi	a2,a2,0
    1232:	06090403          	lb	s0,96(s2)
    1236:	0100                	addi	s0,sp,128
    1238:	0905                	addi	s2,s2,1
    123a:	0306                	slli	t1,t1,0x1
    123c:	0901                	addi	s2,s2,0
    123e:	0004                	.insn	2, 0x0004
    1240:	0601                	addi	a2,a2,0
    1242:	04090003          	lb	zero,64(s2)
    1246:	0100                	addi	s0,sp,128
    1248:	1e05                	addi	t3,t3,-31
    124a:	0200                	addi	s0,sp,256
    124c:	0204                	addi	s1,sp,256
    124e:	06097f03          	.insn	4, 0x06097f03
    1252:	0100                	addi	s0,sp,128
    1254:	1405                	addi	s0,s0,-31
    1256:	0200                	addi	s0,sp,256
    1258:	0104                	addi	s1,sp,128
    125a:	02090003          	lb	zero,32(s2)
    125e:	0100                	addi	s0,sp,128
    1260:	0e05                	addi	t3,t3,1
    1262:	0306                	slli	t1,t1,0x1
    1264:	00040977          	.insn	4, 0x00040977
    1268:	0501                	addi	a0,a0,0
    126a:	0f030607          	.insn	4, 0x0f030607
    126e:	0609                	addi	a2,a2,2
    1270:	0100                	addi	s0,sp,128
    1272:	0305                	addi	t1,t1,1
    1274:	097f9303          	lh	t1,151(t6)
    1278:	0000                	unimp
    127a:	0501                	addi	a0,a0,0
    127c:	0606                	slli	a2,a2,0x1
    127e:	00090003          	lb	zero,0(s2)
    1282:	0100                	addi	s0,sp,128
    1284:	0805                	addi	a6,a6,1
    1286:	0306                	slli	t1,t1,0x1
    1288:	0902                	c.slli64	s2
    128a:	0006                	c.slli	zero,0x1
    128c:	0501                	addi	a0,a0,0
    128e:	0003060b          	.insn	4, 0x0003060b
    1292:	0009                	c.nop	2
    1294:	0100                	addi	s0,sp,128
    1296:	0505                	addi	a0,a0,1
    1298:	0306                	slli	t1,t1,0x1
    129a:	0901                	addi	s2,s2,0
    129c:	0002                	c.slli64	zero
    129e:	0501                	addi	a0,a0,0
    12a0:	060c                	addi	a1,sp,768
    12a2:	00090003          	lb	zero,0(s2)
    12a6:	0100                	addi	s0,sp,128
    12a8:	0505                	addi	a0,a0,1
    12aa:	0306                	slli	t1,t1,0x1
    12ac:	097e                	slli	s2,s2,0x1f
    12ae:	0008                	.insn	2, 0x0008
    12b0:	0501                	addi	a0,a0,0
    12b2:	060c                	addi	a1,sp,768
    12b4:	00090003          	lb	zero,0(s2)
    12b8:	0100                	addi	s0,sp,128
    12ba:	0705                	addi	a4,a4,1
    12bc:	0306                	slli	t1,t1,0x1
    12be:	00ed                	addi	ra,ra,27
    12c0:	0609                	addi	a2,a2,2
    12c2:	0100                	addi	s0,sp,128
    12c4:	0a05                	addi	s4,s4,1
    12c6:	0306                	slli	t1,t1,0x1
    12c8:	0900                	addi	s0,sp,144
    12ca:	0000                	unimp
    12cc:	0501                	addi	a0,a0,0
    12ce:	0402000b          	.insn	4, 0x0402000b
    12d2:	0301                	addi	t1,t1,0
    12d4:	097f 0004 0501 030c 	.insn	10, 0x0905030c05010004097f
    12dc:	0905 
    12de:	0002                	c.slli64	zero
    12e0:	0501                	addi	a0,a0,0
    12e2:	0605                	addi	a2,a2,1
    12e4:	097f9303          	lh	t1,151(t6)
    12e8:	0004                	.insn	2, 0x0004
    12ea:	0501                	addi	a0,a0,0
    12ec:	000c                	.insn	2, 0x000c
    12ee:	0402                	c.slli64	s0
    12f0:	0601                	addi	a2,a2,0
    12f2:	00090003          	lb	zero,0(s2)
    12f6:	0100                	addi	s0,sp,128
    12f8:	04090003          	lb	zero,64(s2)
    12fc:	0100                	addi	s0,sp,128
    12fe:	0905                	addi	s2,s2,1
    1300:	0306                	slli	t1,t1,0x1
    1302:	00ea                	slli	ra,ra,0x1a
    1304:	0409                	addi	s0,s0,2
    1306:	0100                	addi	s0,sp,128
    1308:	08090103          	lb	sp,128(s2)
    130c:	0100                	addi	s0,sp,128
    130e:	0f05                	addi	t5,t5,1
    1310:	0306                	slli	t1,t1,0x1
    1312:	0900                	addi	s0,sp,144
    1314:	0000                	unimp
    1316:	0501                	addi	a0,a0,0
    1318:	030c                	addi	a1,sp,384
    131a:	0902                	c.slli64	s2
    131c:	0004                	.insn	2, 0x0004
    131e:	0501                	addi	a0,a0,0
    1320:	10030607          	.insn	4, 0x10030607
    1324:	0609                	addi	a2,a2,2
    1326:	0100                	addi	s0,sp,128
    1328:	00090003          	lb	zero,0(s2)
    132c:	0100                	addi	s0,sp,128
    132e:	3305                	addiw	t1,t1,-31
    1330:	00090003          	lb	zero,0(s2)
    1334:	0100                	addi	s0,sp,128
    1336:	0705                	addi	a4,a4,1
    1338:	00090103          	lb	sp,0(s2)
    133c:	0100                	addi	s0,sp,128
    133e:	00090103          	lb	sp,0(s2)
    1342:	0100                	addi	s0,sp,128
    1344:	08090103          	lb	sp,128(s2)
    1348:	0100                	addi	s0,sp,128
    134a:	08090703          	lb	a4,128(s2)
    134e:	0100                	addi	s0,sp,128
    1350:	0305                	addi	t1,t1,1
    1352:	097eea03          	lwu	s4,151(t4)
    1356:	0000                	unimp
    1358:	0501                	addi	a0,a0,0
    135a:	060c                	addi	a1,sp,768
    135c:	09019403          	lh	s0,144(gp) # 800018d8 <__global_pointer$+0x90>
    1360:	0000                	unimp
    1362:	0501                	addi	a0,a0,0
    1364:	0605                	addi	a2,a2,1
    1366:	097eef03          	lwu	t5,151(t4)
    136a:	0002                	c.slli64	zero
    136c:	0501                	addi	a0,a0,0
    136e:	060c                	addi	a1,sp,768
    1370:	00090003          	lb	zero,0(s2)
    1374:	0100                	addi	s0,sp,128
    1376:	09019103          	lh	sp,144(gp) # 800018d8 <__global_pointer$+0x90>
    137a:	000a                	c.slli	zero,0x2
    137c:	0501                	addi	a0,a0,0
    137e:	02030607          	.insn	4, 0x02030607
    1382:	0209                	addi	tp,tp,2 # 2 <_start-0x7ffffffe>
    1384:	0100                	addi	s0,sp,128
    1386:	0305                	addi	t1,t1,1
    1388:	097eea03          	lwu	s4,151(t4)
    138c:	0000                	unimp
    138e:	0501                	addi	a0,a0,0
    1390:	0606                	slli	a2,a2,0x1
    1392:	00090003          	lb	zero,0(s2)
    1396:	0100                	addi	s0,sp,128
    1398:	0505                	addi	a0,a0,1
    139a:	0306                	slli	t1,t1,0x1
    139c:	0901                	addi	s2,s2,0
    139e:	0006                	c.slli	zero,0x1
    13a0:	0501                	addi	a0,a0,0
    13a2:	060c                	addi	a1,sp,768
    13a4:	00090003          	lb	zero,0(s2)
    13a8:	0100                	addi	s0,sp,128
    13aa:	0705                	addi	a4,a4,1
    13ac:	0306                	slli	t1,t1,0x1
    13ae:	06090197          	auipc	gp,0x6090
    13b2:	0100                	addi	s0,sp,128
    13b4:	0305                	addi	t1,t1,1
    13b6:	097ed403          	lhu	s0,151(t4)
    13ba:	0002                	c.slli64	zero
    13bc:	0301                	addi	t1,t1,0
    13be:	0901                	addi	s2,s2,0
    13c0:	0000                	unimp
    13c2:	0301                	addi	t1,t1,0
    13c4:	0902                	c.slli64	s2
    13c6:	0000                	unimp
    13c8:	0501                	addi	a0,a0,0
    13ca:	0305                	addi	t1,t1,1
    13cc:	0902                	c.slli64	s2
    13ce:	0000                	unimp
    13d0:	0501                	addi	a0,a0,0
    13d2:	00030617          	auipc	a2,0x30
    13d6:	0009                	c.nop	2
    13d8:	0100                	addi	s0,sp,128
    13da:	1105                	addi	sp,sp,-31
    13dc:	0a090003          	lb	zero,160(s2)
    13e0:	0100                	addi	s0,sp,128
    13e2:	0505                	addi	a0,a0,1
    13e4:	0306                	slli	t1,t1,0x1
    13e6:	0901                	addi	s2,s2,0
    13e8:	0002                	c.slli64	zero
    13ea:	0501                	addi	a0,a0,0
    13ec:	060d                	addi	a2,a2,3 # 313d5 <_start-0x7ffcec2b>
    13ee:	02097f03          	.insn	4, 0x02097f03
    13f2:	0100                	addi	s0,sp,128
    13f4:	0805                	addi	a6,a6,1
    13f6:	02090103          	lb	sp,32(s2)
    13fa:	0100                	addi	s0,sp,128
    13fc:	0505                	addi	a0,a0,1
    13fe:	0306                	slli	t1,t1,0x1
    1400:	0902                	c.slli64	s2
    1402:	0004                	.insn	2, 0x0004
    1404:	0501                	addi	a0,a0,0
    1406:	0609                	addi	a2,a2,2
    1408:	00090003          	lb	zero,0(s2)
    140c:	0100                	addi	s0,sp,128
    140e:	0306                	slli	t1,t1,0x1
    1410:	0004097b          	.insn	4, 0x0004097b
    1414:	0501                	addi	a0,a0,0
    1416:	09000303          	lb	t1,144(zero) # 90 <_start-0x7fffff70>
    141a:	0000                	unimp
    141c:	0501                	addi	a0,a0,0
    141e:	0305                	addi	t1,t1,1
    1420:	0902                	c.slli64	s2
    1422:	0000                	unimp
    1424:	0501                	addi	a0,a0,0
    1426:	060d                	addi	a2,a2,3
    1428:	00090003          	lb	zero,0(s2)
    142c:	0100                	addi	s0,sp,128
    142e:	1705                	addi	a4,a4,-31
    1430:	02090003          	lb	zero,32(s2)
    1434:	0100                	addi	s0,sp,128
    1436:	1105                	addi	sp,sp,-31
    1438:	04090003          	lb	zero,64(s2)
    143c:	0100                	addi	s0,sp,128
    143e:	0505                	addi	a0,a0,1
    1440:	0306                	slli	t1,t1,0x1
    1442:	0901                	addi	s2,s2,0
    1444:	0002                	c.slli64	zero
    1446:	0501                	addi	a0,a0,0
    1448:	0608                	addi	a0,sp,768
    144a:	00090003          	lb	zero,0(s2)
    144e:	0100                	addi	s0,sp,128
    1450:	1205                	addi	tp,tp,-31 # ffffffffffffffe1 <__global_pointer$+0xffffffff7fffe799>
    1452:	0306                	slli	t1,t1,0x1
    1454:	0905                	addi	s2,s2,1
    1456:	0006                	c.slli	zero,0x1
    1458:	0501                	addi	a0,a0,0
    145a:	0003060f          	.insn	4, 0x0003060f
    145e:	0009                	c.nop	2
    1460:	0100                	addi	s0,sp,128
    1462:	1205                	addi	tp,tp,-31 # ffffffffffffffe1 <__global_pointer$+0xffffffff7fffe799>
    1464:	08090003          	lb	zero,128(s2)
    1468:	0100                	addi	s0,sp,128
    146a:	0505                	addi	a0,a0,1
    146c:	0306                	slli	t1,t1,0x1
    146e:	0901                	addi	s2,s2,0
    1470:	0004                	.insn	2, 0x0004
    1472:	0501                	addi	a0,a0,0
    1474:	0312                	slli	t1,t1,0x4
    1476:	097f 0006 0501 060f 	.insn	10, 0x0003060f05010006097f
    147e:	0003 
    1480:	0009                	c.nop	2
    1482:	0100                	addi	s0,sp,128
    1484:	1205                	addi	tp,tp,-31 # ffffffffffffffe1 <__global_pointer$+0xffffffff7fffe799>
    1486:	02090003          	lb	zero,32(s2)
    148a:	0100                	addi	s0,sp,128
    148c:	1005                	c.nop	-31
    148e:	0306                	slli	t1,t1,0x1
    1490:	00040903          	lb	s2,0(s0)
    1494:	0501                	addi	a0,a0,0
    1496:	01030633          	add	a2,t1,a6
    149a:	1009                	c.nop	-30
    149c:	0100                	addi	s0,sp,128
    149e:	0200                	addi	s0,sp,256
    14a0:	0204                	addi	s1,sp,256
    14a2:	02090003          	lb	zero,32(s2)
    14a6:	0100                	addi	s0,sp,128
    14a8:	0200                	addi	s0,sp,256
    14aa:	0104                	addi	s1,sp,128
    14ac:	04090003          	lb	zero,64(s2)
    14b0:	0100                	addi	s0,sp,128
    14b2:	0505                	addi	a0,a0,1
    14b4:	08093103          	ld	sp,128(s2)
    14b8:	0100                	addi	s0,sp,128
    14ba:	0805                	addi	a6,a6,1
    14bc:	0306                	slli	t1,t1,0x1
    14be:	0956                	slli	s2,s2,0x15
    14c0:	0004                	.insn	2, 0x0004
    14c2:	0501                	addi	a0,a0,0
    14c4:	0003060b          	.insn	4, 0x0003060b
    14c8:	0009                	c.nop	2
    14ca:	0100                	addi	s0,sp,128
    14cc:	0505                	addi	a0,a0,1
    14ce:	0306                	slli	t1,t1,0x1
    14d0:	00020903          	lb	s2,0(tp) # 0 <_start-0x80000000>
    14d4:	0501                	addi	a0,a0,0
    14d6:	000c                	.insn	2, 0x000c
    14d8:	0402                	c.slli64	s0
    14da:	0601                	addi	a2,a2,0
    14dc:	00090003          	lb	zero,0(s2)
    14e0:	0100                	addi	s0,sp,128
    14e2:	04090003          	lb	zero,64(s2)
    14e6:	0100                	addi	s0,sp,128
    14e8:	0505                	addi	a0,a0,1
    14ea:	0200                	addi	s0,sp,256
    14ec:	0404                	addi	s1,sp,512
    14ee:	04097603          	.insn	4, 0x04097603
    14f2:	0100                	addi	s0,sp,128
    14f4:	1005                	c.nop	-31
    14f6:	0306                	slli	t1,t1,0x1
    14f8:	097f 0006 0501 0305 	.insn	10, 0x0901030505010006097f
    1500:	0901 
    1502:	0008                	.insn	2, 0x0008
    1504:	0501                	addi	a0,a0,0
    1506:	0003060f          	.insn	4, 0x0003060f
    150a:	0009                	c.nop	2
    150c:	0100                	addi	s0,sp,128
    150e:	3305                	addiw	t1,t1,-31
    1510:	0200                	addi	s0,sp,256
    1512:	0204                	addi	s1,sp,256
    1514:	04090003          	lb	zero,64(s2)
    1518:	0100                	addi	s0,sp,128
    151a:	02090003          	lb	zero,32(s2)
    151e:	0100                	addi	s0,sp,128
    1520:	0200                	addi	s0,sp,256
    1522:	0104                	addi	s1,sp,128
    1524:	04090003          	lb	zero,64(s2)
    1528:	0100                	addi	s0,sp,128
    152a:	0705                	addi	a4,a4,1
    152c:	0306                	slli	t1,t1,0x1
    152e:	01a2                	slli	gp,gp,0x8
    1530:	0809                	addi	a6,a6,2
    1532:	0100                	addi	s0,sp,128
    1534:	08090103          	lb	sp,128(s2)
    1538:	0100                	addi	s0,sp,128
    153a:	02090403          	lb	s0,32(s2)
    153e:	0100                	addi	s0,sp,128
    1540:	08090103          	lb	sp,128(s2)
    1544:	0100                	addi	s0,sp,128
    1546:	00090103          	lb	sp,0(s2)
    154a:	0100                	addi	s0,sp,128
    154c:	0b05                	addi	s6,s6,1
    154e:	0306                	slli	t1,t1,0x1
    1550:	097f 0000 0501 0307 	.insn	10, 0x0901030705010000097f
    1558:	0901 
    155a:	0002                	c.slli64	zero
    155c:	0501                	addi	a0,a0,0
    155e:	0020                	addi	s0,sp,8
    1560:	0402                	c.slli64	s0
    1562:	0601                	addi	a2,a2,0
    1564:	02094903          	lbu	s2,32(s2)
    1568:	0100                	addi	s0,sp,128
    156a:	1205                	addi	tp,tp,-31 # ffffffffffffffe1 <__global_pointer$+0xffffffff7fffe799>
    156c:	0200                	addi	s0,sp,256
    156e:	0104                	addi	s1,sp,128
    1570:	0306                	slli	t1,t1,0x1
    1572:	0900                	addi	s0,sp,144
    1574:	0000                	unimp
    1576:	0501                	addi	a0,a0,0
    1578:	0020                	addi	s0,sp,8
    157a:	0402                	c.slli64	s0
    157c:	0301                	addi	t1,t1,0
    157e:	0900                	addi	s0,sp,144
    1580:	0004                	.insn	2, 0x0004
    1582:	0501                	addi	a0,a0,0
    1584:	030e                	slli	t1,t1,0x3
    1586:	0004097b          	.insn	4, 0x0004097b
    158a:	0501                	addi	a0,a0,0
    158c:	02030607          	.insn	4, 0x02030607
    1590:	0409                	addi	s0,s0,2
    1592:	0100                	addi	s0,sp,128
    1594:	0b05                	addi	s6,s6,1
    1596:	0306                	slli	t1,t1,0x1
    1598:	097f 0000 0501 0012 	.insn	10, 0x0402001205010000097f
    15a0:	0402 
    15a2:	0301                	addi	t1,t1,0
    15a4:	0904                	addi	s1,sp,144
    15a6:	0008                	.insn	2, 0x0008
    15a8:	0501                	addi	a0,a0,0
    15aa:	030a                	slli	t1,t1,0x2
    15ac:	097d                	addi	s2,s2,31
    15ae:	0004                	.insn	2, 0x0004
    15b0:	0501                	addi	a0,a0,0
    15b2:	0301                	addi	t1,t1,0
    15b4:	093d                	addi	s2,s2,15
    15b6:	0006                	c.slli	zero,0x1
    15b8:	0601                	addi	a2,a2,0
    15ba:	1c090303          	lb	t1,448(s2)
    15be:	0100                	addi	s0,sp,128
    15c0:	0305                	addi	t1,t1,1
    15c2:	12090103          	lb	sp,288(s2)
    15c6:	0100                	addi	s0,sp,128
    15c8:	00090103          	lb	sp,0(s2)
    15cc:	0100                	addi	s0,sp,128
    15ce:	04090203          	lb	tp,64(s2)
    15d2:	0100                	addi	s0,sp,128
    15d4:	10090203          	lb	tp,256(s2)
    15d8:	0100                	addi	s0,sp,128
    15da:	00090103          	lb	sp,0(s2)
    15de:	0100                	addi	s0,sp,128
    15e0:	0105                	addi	sp,sp,1
    15e2:	0306                	slli	t1,t1,0x1
    15e4:	0901                	addi	s2,s2,0
    15e6:	0000                	unimp
    15e8:	0601                	addi	a2,a2,0
    15ea:	08090303          	lb	t1,128(s2)
    15ee:	0100                	addi	s0,sp,128
    15f0:	0305                	addi	t1,t1,1
    15f2:	14090103          	lb	sp,320(s2)
    15f6:	0100                	addi	s0,sp,128
    15f8:	00090103          	lb	sp,0(s2)
    15fc:	0100                	addi	s0,sp,128
    15fe:	0905                	addi	s2,s2,1
    1600:	0306                	slli	t1,t1,0x1
    1602:	0900                	addi	s0,sp,144
    1604:	0000                	unimp
    1606:	0501                	addi	a0,a0,0
    1608:	01030603          	lb	a2,16(t1)
    160c:	0209                	addi	tp,tp,2 # 2 <_start-0x7ffffffe>
    160e:	0100                	addi	s0,sp,128
    1610:	04090203          	lb	tp,64(s2)
    1614:	0100                	addi	s0,sp,128
    1616:	00090703          	lb	a4,0(s2)
    161a:	0100                	addi	s0,sp,128
    161c:	10090103          	lb	sp,256(s2)
    1620:	0100                	addi	s0,sp,128
    1622:	0805                	addi	a6,a6,1
    1624:	0306                	slli	t1,t1,0x1
    1626:	0900                	addi	s0,sp,144
    1628:	0002                	c.slli64	zero
    162a:	0501                	addi	a0,a0,0
    162c:	02030603          	lb	a2,32(t1)
    1630:	0409                	addi	s0,s0,2
    1632:	0100                	addi	s0,sp,128
    1634:	00090103          	lb	sp,0(s2)
    1638:	0100                	addi	s0,sp,128
    163a:	0105                	addi	sp,sp,1
    163c:	0306                	slli	t1,t1,0x1
    163e:	0901                	addi	s2,s2,0
    1640:	0000                	unimp
    1642:	0601                	addi	a2,a2,0
    1644:	097dec03          	lwu	s8,151(s11)
    1648:	000c                	.insn	2, 0x000c
    164a:	0501                	addi	a0,a0,0
    164c:	09010303          	lb	t1,144(sp)
    1650:	001c                	.insn	2, 0x001c
    1652:	0301                	addi	t1,t1,0
    1654:	0976                	slli	s2,s2,0x1d
    1656:	0000                	unimp
    1658:	0301                	addi	t1,t1,0
    165a:	0901                	addi	s2,s2,0
    165c:	0000                	unimp
    165e:	0301                	addi	t1,t1,0
    1660:	0901                	addi	s2,s2,0
    1662:	0000                	unimp
    1664:	0501                	addi	a0,a0,0
    1666:	00030623          	sb	zero,12(t1)
    166a:	0009                	c.nop	2
    166c:	0100                	addi	s0,sp,128
    166e:	0305                	addi	t1,t1,1
    1670:	0306                	slli	t1,t1,0x1
    1672:	0901                	addi	s2,s2,0
    1674:	000c                	.insn	2, 0x000c
    1676:	0301                	addi	t1,t1,0
    1678:	0901                	addi	s2,s2,0
    167a:	000a                	c.slli	zero,0x2
    167c:	0301                	addi	t1,t1,0
    167e:	0901                	addi	s2,s2,0
    1680:	0000                	unimp
    1682:	0301                	addi	t1,t1,0
    1684:	0906                	slli	s2,s2,0x1
    1686:	0012                	c.slli	zero,0x4
    1688:	0301                	addi	t1,t1,0
    168a:	0901                	addi	s2,s2,0
    168c:	0008                	.insn	2, 0x0008
    168e:	0301                	addi	t1,t1,0
    1690:	7efa                	ld	t4,440(sp)
    1692:	0009                	c.nop	2
    1694:	0100                	addi	s0,sp,128
    1696:	0205                	addi	tp,tp,1 # 1 <_start-0x7fffffff>
    1698:	00090103          	lb	sp,0(s2)
    169c:	0100                	addi	s0,sp,128
    169e:	0c05                	addi	s8,s8,1
    16a0:	0306                	slli	t1,t1,0x1
    16a2:	0900                	addi	s0,sp,144
    16a4:	0000                	unimp
    16a6:	0501                	addi	a0,a0,0
    16a8:	88030603          	lb	a2,-1920(t1)
    16ac:	0901                	addi	s2,s2,0
    16ae:	000a                	c.slli	zero,0x2
    16b0:	0501                	addi	a0,a0,0
    16b2:	060d                	addi	a2,a2,3
    16b4:	00090003          	lb	zero,0(s2)
    16b8:	0100                	addi	s0,sp,128
    16ba:	0305                	addi	t1,t1,1
    16bc:	0306                	slli	t1,t1,0x1
    16be:	0902                	c.slli64	s2
    16c0:	000a                	c.slli	zero,0x2
    16c2:	0301                	addi	t1,t1,0
    16c4:	0901                	addi	s2,s2,0
    16c6:	0000                	unimp
    16c8:	0301                	addi	t1,t1,0
    16ca:	0901                	addi	s2,s2,0
    16cc:	0000                	unimp
    16ce:	0501                	addi	a0,a0,0
    16d0:	0308                	addi	a0,sp,384
    16d2:	0900                	addi	s0,sp,144
    16d4:	0000                	unimp
    16d6:	0501                	addi	a0,a0,0
    16d8:	0015                	c.nop	5
    16da:	0402                	c.slli64	s0
    16dc:	0301                	addi	t1,t1,0
    16de:	0900                	addi	s0,sp,144
    16e0:	0000                	unimp
    16e2:	0501                	addi	a0,a0,0
    16e4:	0305                	addi	t1,t1,1
    16e6:	0901                	addi	s2,s2,0
    16e8:	0000                	unimp
    16ea:	0501                	addi	a0,a0,0
    16ec:	0611                	addi	a2,a2,4
    16ee:	00090003          	lb	zero,0(s2)
    16f2:	0100                	addi	s0,sp,128
    16f4:	0805                	addi	a6,a6,1
    16f6:	08090003          	lb	zero,128(s2)
    16fa:	0100                	addi	s0,sp,128
    16fc:	2605                	addiw	a2,a2,1
    16fe:	0200                	addi	s0,sp,256
    1700:	0204                	addi	s1,sp,256
    1702:	0306                	slli	t1,t1,0x1
    1704:	097f 0002 0501 0015 	.insn	10, 0x0402001505010002097f
    170c:	0402 
    170e:	0301                	addi	t1,t1,0
    1710:	0900                	addi	s0,sp,144
    1712:	0000                	unimp
    1714:	0501                	addi	a0,a0,0
    1716:	0305                	addi	t1,t1,1
    1718:	0901                	addi	s2,s2,0
    171a:	0000                	unimp
    171c:	0501                	addi	a0,a0,0
    171e:	0611                	addi	a2,a2,4
    1720:	00090003          	lb	zero,0(s2)
    1724:	0100                	addi	s0,sp,128
    1726:	0805                	addi	a6,a6,1
    1728:	04090003          	lb	zero,64(s2)
    172c:	0100                	addi	s0,sp,128
    172e:	0905                	addi	s2,s2,1
    1730:	02097e03          	.insn	4, 0x02097e03
    1734:	0100                	addi	s0,sp,128
    1736:	0705                	addi	a4,a4,1
    1738:	0306                	slli	t1,t1,0x1
    173a:	00020903          	lb	s2,0(tp) # 0 <_start-0x80000000>
    173e:	0501                	addi	a0,a0,0
    1740:	0003060f          	.insn	4, 0x0003060f
    1744:	0009                	c.nop	2
    1746:	0100                	addi	s0,sp,128
    1748:	0c05                	addi	s8,s8,1
    174a:	0200                	addi	s0,sp,256
    174c:	0104                	addi	s1,sp,128
    174e:	12090003          	lb	zero,288(s2)
    1752:	0100                	addi	s0,sp,128
    1754:	2605                	addiw	a2,a2,1
    1756:	0200                	addi	s0,sp,256
    1758:	0204                	addi	s1,sp,256
    175a:	0306                	slli	t1,t1,0x1
    175c:	097e                	slli	s2,s2,0x1f
    175e:	0002                	c.slli64	zero
    1760:	0501                	addi	a0,a0,0
    1762:	0015                	c.nop	5
    1764:	0402                	c.slli64	s0
    1766:	0301                	addi	t1,t1,0
    1768:	0900                	addi	s0,sp,144
    176a:	0000                	unimp
    176c:	0501                	addi	a0,a0,0
    176e:	09030303          	lb	t1,144(t1)
    1772:	0000                	unimp
    1774:	0501                	addi	a0,a0,0
    1776:	0606                	slli	a2,a2,0x1
    1778:	00090003          	lb	zero,0(s2)
    177c:	0100                	addi	s0,sp,128
    177e:	0505                	addi	a0,a0,1
    1780:	0306                	slli	t1,t1,0x1
    1782:	0901                	addi	s2,s2,0
    1784:	0004                	.insn	2, 0x0004
    1786:	0501                	addi	a0,a0,0
    1788:	094d0303          	lb	t1,148(s10)
    178c:	0000                	unimp
    178e:	0301                	addi	t1,t1,0
    1790:	0935                	addi	s2,s2,13
    1792:	0006                	c.slli	zero,0x1
    1794:	0301                	addi	t1,t1,0
    1796:	7fbe                	ld	t6,488(sp)
    1798:	0009                	c.nop	2
    179a:	0100                	addi	s0,sp,128
    179c:	0705                	addi	a4,a4,1
    179e:	06093e03          	ld	t3,96(s2)
    17a2:	0100                	addi	s0,sp,128
    17a4:	0f05                	addi	t5,t5,1
    17a6:	0306                	slli	t1,t1,0x1
    17a8:	0900                	addi	s0,sp,144
    17aa:	0000                	unimp
    17ac:	0501                	addi	a0,a0,0
    17ae:	000c                	.insn	2, 0x000c
    17b0:	0402                	c.slli64	s0
    17b2:	0301                	addi	t1,t1,0
    17b4:	0900                	addi	s0,sp,144
    17b6:	001a                	c.slli	zero,0x6
    17b8:	0501                	addi	a0,a0,0
    17ba:	0026                	c.slli	zero,0x9
    17bc:	0402                	c.slli64	s0
    17be:	0602                	c.slli64	a2
    17c0:	04097e03          	.insn	4, 0x04097e03
    17c4:	0100                	addi	s0,sp,128
    17c6:	1505                	addi	a0,a0,-31
    17c8:	0200                	addi	s0,sp,256
    17ca:	0104                	addi	s1,sp,128
    17cc:	00090003          	lb	zero,0(s2)
    17d0:	0100                	addi	s0,sp,128
    17d2:	0505                	addi	a0,a0,1
    17d4:	00090103          	lb	sp,0(s2)
    17d8:	0100                	addi	s0,sp,128
    17da:	1105                	addi	sp,sp,-31
    17dc:	0306                	slli	t1,t1,0x1
    17de:	0900                	addi	s0,sp,144
    17e0:	0000                	unimp
    17e2:	0501                	addi	a0,a0,0
    17e4:	0308                	addi	a0,sp,384
    17e6:	0900                	addi	s0,sp,144
    17e8:	0004                	.insn	2, 0x0004
    17ea:	0501                	addi	a0,a0,0
    17ec:	0601                	addi	a2,a2,0
    17ee:	0902bf03          	ld	t5,144(t0)
    17f2:	0004                	.insn	2, 0x0004
    17f4:	0501                	addi	a0,a0,0
    17f6:	09010303          	lb	t1,144(sp)
    17fa:	0000                	unimp
    17fc:	0301                	addi	t1,t1,0
    17fe:	0902                	c.slli64	s2
    1800:	0000                	unimp
    1802:	0501                	addi	a0,a0,0
    1804:	0305                	addi	t1,t1,1
    1806:	0901                	addi	s2,s2,0
    1808:	0000                	unimp
    180a:	0501                	addi	a0,a0,0
    180c:	060d                	addi	a2,a2,3
    180e:	00090003          	lb	zero,0(s2)
    1812:	0100                	addi	s0,sp,128
    1814:	0805                	addi	a6,a6,1
    1816:	02090003          	lb	zero,32(s2)
    181a:	0100                	addi	s0,sp,128
    181c:	0505                	addi	a0,a0,1
    181e:	0306                	slli	t1,t1,0x1
    1820:	0901                	addi	s2,s2,0
    1822:	0004                	.insn	2, 0x0004
    1824:	0501                	addi	a0,a0,0
    1826:	060d                	addi	a2,a2,3
    1828:	00090003          	lb	zero,0(s2)
    182c:	0100                	addi	s0,sp,128
    182e:	0805                	addi	a6,a6,1
    1830:	02090003          	lb	zero,32(s2)
    1834:	0100                	addi	s0,sp,128
    1836:	1405                	addi	s0,s0,-31
    1838:	0200                	addi	s0,sp,256
    183a:	0204                	addi	s1,sp,256
    183c:	0306                	slli	t1,t1,0x1
    183e:	0901                	addi	s2,s2,0
    1840:	0004                	.insn	2, 0x0004
    1842:	0001                	nop
    1844:	0402                	c.slli64	s0
    1846:	0601                	addi	a2,a2,0
    1848:	02090003          	lb	zero,32(s2)
    184c:	0100                	addi	s0,sp,128
    184e:	0305                	addi	t1,t1,1
    1850:	0306                	slli	t1,t1,0x1
    1852:	0902                	c.slli64	s2
    1854:	0004                	.insn	2, 0x0004
    1856:	0501                	addi	a0,a0,0
    1858:	0601                	addi	a2,a2,0
    185a:	00090103          	lb	sp,0(s2)
    185e:	0100                	addi	s0,sp,128
    1860:	0306                	slli	t1,t1,0x1
    1862:	00060903          	lb	s2,0(a2)
    1866:	0501                	addi	a0,a0,0
    1868:	09010303          	lb	t1,144(sp)
    186c:	0000                	unimp
    186e:	0301                	addi	t1,t1,0
    1870:	0901                	addi	s2,s2,0
    1872:	0000                	unimp
    1874:	0501                	addi	a0,a0,0
    1876:	0609                	addi	a2,a2,2
    1878:	00097f03          	.insn	4, 0x00097f03
    187c:	0100                	addi	s0,sp,128
    187e:	0a05                	addi	s4,s4,1
    1880:	0200                	addi	s0,sp,256
    1882:	0104                	addi	s1,sp,128
    1884:	0306                	slli	t1,t1,0x1
    1886:	0901                	addi	s2,s2,0
    1888:	0002                	c.slli64	zero
    188a:	0501                	addi	a0,a0,0
    188c:	0016                	c.slli	zero,0x5
    188e:	0402                	c.slli64	s0
    1890:	0601                	addi	a2,a2,0
    1892:	00090003          	lb	zero,0(s2)
    1896:	0100                	addi	s0,sp,128
    1898:	0d05                	addi	s10,s10,1
    189a:	0200                	addi	s0,sp,256
    189c:	0104                	addi	s1,sp,128
    189e:	02090003          	lb	zero,32(s2)
    18a2:	0100                	addi	s0,sp,128
    18a4:	1205                	addi	tp,tp,-31 # ffffffffffffffe1 <__global_pointer$+0xffffffff7fffe799>
    18a6:	0200                	addi	s0,sp,256
    18a8:	0104                	addi	s1,sp,128
    18aa:	02090003          	lb	zero,32(s2)
    18ae:	0100                	addi	s0,sp,128
    18b0:	1005                	c.nop	-31
    18b2:	0200                	addi	s0,sp,256
    18b4:	0104                	addi	s1,sp,128
    18b6:	04090003          	lb	zero,64(s2)
    18ba:	0100                	addi	s0,sp,128
    18bc:	0a05                	addi	s4,s4,1
    18be:	0200                	addi	s0,sp,256
    18c0:	0104                	addi	s1,sp,128
    18c2:	04090003          	lb	zero,64(s2)
    18c6:	0100                	addi	s0,sp,128
    18c8:	0305                	addi	t1,t1,1
    18ca:	0306                	slli	t1,t1,0x1
    18cc:	0902                	c.slli64	s2
    18ce:	0002                	c.slli64	zero
    18d0:	0501                	addi	a0,a0,0
    18d2:	0601                	addi	a2,a2,0
    18d4:	00090103          	lb	sp,0(s2)
    18d8:	0100                	addi	s0,sp,128
    18da:	0306                	slli	t1,t1,0x1
    18dc:	00020903          	lb	s2,0(tp) # 0 <_start-0x80000000>
    18e0:	0501                	addi	a0,a0,0
    18e2:	09010303          	lb	t1,144(sp)
    18e6:	0000                	unimp
    18e8:	0301                	addi	t1,t1,0
    18ea:	0901                	addi	s2,s2,0
    18ec:	0000                	unimp
    18ee:	0301                	addi	t1,t1,0
    18f0:	0902                	c.slli64	s2
    18f2:	0000                	unimp
    18f4:	0501                	addi	a0,a0,0
    18f6:	0900030f          	.insn	4, 0x0900030f
    18fa:	0000                	unimp
    18fc:	0501                	addi	a0,a0,0
    18fe:	060a                	slli	a2,a2,0x2
    1900:	00090003          	lb	zero,0(s2)
    1904:	0100                	addi	s0,sp,128
    1906:	0f05                	addi	t5,t5,1
    1908:	04090003          	lb	zero,64(s2)
    190c:	0100                	addi	s0,sp,128
    190e:	0505                	addi	a0,a0,1
    1910:	0306                	slli	t1,t1,0x1
    1912:	0901                	addi	s2,s2,0
    1914:	0008                	.insn	2, 0x0008
    1916:	0501                	addi	a0,a0,0
    1918:	0608                	addi	a0,sp,768
    191a:	00090003          	lb	zero,0(s2)
    191e:	0100                	addi	s0,sp,128
    1920:	0f05                	addi	t5,t5,1
    1922:	0306                	slli	t1,t1,0x1
    1924:	097f 0002 0501 060a 	.insn	10, 0x0003060a05010002097f
    192c:	0003 
    192e:	0009                	c.nop	2
    1930:	0100                	addi	s0,sp,128
    1932:	0f05                	addi	t5,t5,1
    1934:	04090003          	lb	zero,64(s2)
    1938:	0100                	addi	s0,sp,128
    193a:	0305                	addi	t1,t1,1
    193c:	0306                	slli	t1,t1,0x1
    193e:	00040903          	lb	s2,0(s0)
    1942:	0501                	addi	a0,a0,0
    1944:	0606                	slli	a2,a2,0x1
    1946:	00090003          	lb	zero,0(s2)
    194a:	0100                	addi	s0,sp,128
    194c:	0a05                	addi	s4,s4,1
    194e:	0306                	slli	t1,t1,0x1
    1950:	0905                	addi	s2,s2,1
    1952:	000a                	c.slli	zero,0x2
    1954:	0501                	addi	a0,a0,0
    1956:	76030607          	.insn	4, 0x76030607
    195a:	0609                	addi	a2,a2,2
    195c:	0100                	addi	s0,sp,128
    195e:	0a05                	addi	s4,s4,1
    1960:	02090a03          	lb	s4,32(s2)
    1964:	0100                	addi	s0,sp,128
    1966:	0105                	addi	sp,sp,1
    1968:	04090603          	lb	a2,64(s2)
    196c:	0100                	addi	s0,sp,128
    196e:	0505                	addi	a0,a0,1
    1970:	0306                	slli	t1,t1,0x1
    1972:	0976                	slli	s2,s2,0x1d
    1974:	0002                	c.slli64	zero
    1976:	0501                	addi	a0,a0,0
    1978:	0611                	addi	a2,a2,4
    197a:	00090003          	lb	zero,0(s2)
    197e:	0100                	addi	s0,sp,128
    1980:	0a05                	addi	s4,s4,1
    1982:	04090003          	lb	zero,64(s2)
    1986:	0100                	addi	s0,sp,128
    1988:	0505                	addi	a0,a0,1
    198a:	0306                	slli	t1,t1,0x1
    198c:	0901                	addi	s2,s2,0
    198e:	0004                	.insn	2, 0x0004
    1990:	0501                	addi	a0,a0,0
    1992:	0608                	addi	a0,sp,768
    1994:	00090003          	lb	zero,0(s2)
    1998:	0100                	addi	s0,sp,128
    199a:	0a05                	addi	s4,s4,1
    199c:	0306                	slli	t1,t1,0x1
    199e:	00040903          	lb	s2,0(s0)
    19a2:	0501                	addi	a0,a0,0
    19a4:	76030607          	.insn	4, 0x76030607
    19a8:	0609                	addi	a2,a2,2
    19aa:	0100                	addi	s0,sp,128
    19ac:	0505                	addi	a0,a0,1
    19ae:	0306                	slli	t1,t1,0x1
    19b0:	0002090b          	.insn	4, 0x0002090b
    19b4:	0501                	addi	a0,a0,0
    19b6:	0609                	addi	a2,a2,2
    19b8:	00090003          	lb	zero,0(s2)
    19bc:	0100                	addi	s0,sp,128
    19be:	0505                	addi	a0,a0,1
    19c0:	0306                	slli	t1,t1,0x1
    19c2:	0901                	addi	s2,s2,0
    19c4:	0008                	.insn	2, 0x0008
    19c6:	0501                	addi	a0,a0,0
    19c8:	0610                	addi	a2,sp,768
    19ca:	00090003          	lb	zero,0(s2)
    19ce:	0100                	addi	s0,sp,128
    19d0:	1305                	addi	t1,t1,-31
    19d2:	02090003          	lb	zero,32(s2)
    19d6:	0100                	addi	s0,sp,128
    19d8:	0905                	addi	s2,s2,1
    19da:	04090003          	lb	zero,64(s2)
    19de:	0100                	addi	s0,sp,128
    19e0:	0a05                	addi	s4,s4,1
    19e2:	0306                	slli	t1,t1,0x1
    19e4:	097e                	slli	s2,s2,0x1f
    19e6:	0004                	.insn	2, 0x0004
    19e8:	0501                	addi	a0,a0,0
    19ea:	09050303          	lb	t1,144(a0)
    19ee:	0006                	c.slli	zero,0x1
    19f0:	0501                	addi	a0,a0,0
    19f2:	0616                	slli	a2,a2,0x5
    19f4:	00090003          	lb	zero,0(s2)
    19f8:	0100                	addi	s0,sp,128
    19fa:	0200                	addi	s0,sp,256
    19fc:	0104                	addi	s1,sp,128
    19fe:	02090003          	lb	zero,32(s2)
    1a02:	0100                	addi	s0,sp,128
    1a04:	04090003          	lb	zero,64(s2)
    1a08:	0100                	addi	s0,sp,128
    1a0a:	0a05                	addi	s4,s4,1
    1a0c:	02097b03          	.insn	4, 0x02097b03
    1a10:	0100                	addi	s0,sp,128
    1a12:	0409                	addi	s0,s0,2
    1a14:	0000                	unimp
    1a16:	0101                	addi	sp,sp,0

Disassembly of section .debug_str:

0000000000000000 <.debug_str>:
   0:	20554e47          	fmsub.s	ft8,fa0,ft5,ft4,rmm
   4:	20373143          	fmadd.s	ft2,fa4,ft3,ft4,rup
   8:	3431                	addiw	s0,s0,-20
   a:	322e                	fld	ft4,232(sp)
   c:	302e                	fld	ft0,232(sp)
   e:	2d20                	fld	fs0,88(a0)
  10:	616d                	addi	sp,sp,240
  12:	6962                	ld	s2,24(sp)
  14:	6c3d                	lui	s8,0xf
  16:	3670                	fld	fa2,232(a2)
  18:	6434                	ld	a3,72(s0)
  1a:	2d20                	fld	fs0,88(a0)
  1c:	636d                	lui	t1,0x1b
  1e:	6f6d                	lui	t5,0x1b
  20:	6564                	ld	s1,200(a0)
  22:	3d6c                	fld	fa1,248(a0)
  24:	656d                	lui	a0,0x1b
  26:	6164                	ld	s1,192(a0)
  28:	796e                	ld	s2,248(sp)
  2a:	2d20                	fld	fs0,88(a0)
  2c:	746d                	lui	s0,0xffffb
  2e:	6e75                	lui	t3,0x1d
  30:	3d65                	addiw	s10,s10,-7
  32:	6f72                	ld	t5,280(sp)
  34:	74656b63          	bltu	a0,t1,78a <_start-0x7ffff876>
  38:	2d20                	fld	fs0,88(a0)
  3a:	696d                	lui	s2,0x1b
  3c:	732d6173          	csrrsi	sp,mhpmevent18h,26
  40:	6570                	ld	a2,200(a0)
  42:	30323d63          	.insn	4, 0x30323d63
  46:	3931                	addiw	s2,s2,-20 # 1afec <_start-0x7ffe5014>
  48:	3231                	addiw	tp,tp,-20 # ffffffffffffffec <__global_pointer$+0xffffffff7fffe7a4>
  4a:	3331                	addiw	t1,t1,-20 # 1afec <_start-0x7ffe5014>
  4c:	2d20                	fld	fs0,88(a0)
  4e:	616d                	addi	sp,sp,240
  50:	6372                	ld	t1,280(sp)
  52:	3d68                	fld	fa0,248(a0)
  54:	7672                	ld	a2,312(sp)
  56:	3436                	fld	fs0,360(sp)
  58:	6d69                	lui	s10,0x1a
  5a:	6661                	lui	a2,0x18
  5c:	6364                	ld	s1,192(a4)
  5e:	7a5f 6369 7273      	.insn	6, 0x727363697a5f
  64:	7a5f 6669 6e65      	.insn	6, 0x6e6566697a5f
  6a:	20696563          	bltu	s2,t1,274 <_start-0x7ffffd8c>
  6e:	672d                	lui	a4,0xb
  70:	7764                	ld	s1,232(a4)
  72:	7261                	lui	tp,0xffff8
  74:	2d66                	fld	fs10,88(sp)
  76:	2032                	fld	ft0,264(sp)
  78:	4f2d                	li	t5,11
  7a:	2d20                	fld	fs0,88(a0)
  7c:	6e66                	ld	t3,88(sp)
  7e:	72742d6f          	jal	s10,42fa4 <_start-0x7ffbd05c>
  82:	6565                	lui	a0,0x19
  84:	6c2d                	lui	s8,0xb
  86:	2d706f6f          	jal	t5,6b5c <_start-0x7fff94a4>
  8a:	6964                	ld	s1,208(a0)
  8c:	69727473          	csrrci	s0,0x697,4
  90:	7562                	ld	a0,56(sp)
  92:	6574                	ld	a3,200(a0)
  94:	702d                	c.lui	zero,0xfffeb
  96:	7461                	lui	s0,0xffff8
  98:	6574                	ld	a3,200(a0)
  9a:	6e72                	ld	t3,280(sp)
  9c:	6e750073          	.insn	4, 0x6e750073
  a0:	6e676973          	csrrsi	s2,0x6e6,14
  a4:	6465                	lui	s0,0x19
  a6:	6320                	ld	s0,64(a4)
  a8:	6168                	ld	a0,192(a0)
  aa:	0072                	c.slli	zero,0x1c
  ac:	7865                	lui	a6,0xffff9
  ae:	6570                	ld	a2,200(a0)
  b0:	64657463          	bgeu	a0,t1,6f8 <_start-0x7ffff908>
  b4:	7300                	ld	s0,32(a4)
  b6:	6f68                	ld	a0,216(a4)
  b8:	7472                	ld	s0,312(sp)
  ba:	7520                	ld	s0,104(a0)
  bc:	736e                	ld	t1,248(sp)
  be:	6769                	lui	a4,0x1a
  c0:	656e                	ld	a0,216(sp)
  c2:	2064                	fld	fs1,192(s0)
  c4:	6e69                	lui	t3,0x1a
  c6:	0074                	addi	a3,sp,12
  c8:	6576                	ld	a0,344(sp)
  ca:	6972                	ld	s2,280(sp)
  cc:	7966                	ld	s2,120(sp)
  ce:	6d00                	ld	s0,24(a0)
  d0:	6961                	lui	s2,0x18
  d2:	006e                	c.slli	zero,0x1b
  d4:	2e6d7573          	csrrci	a0,0x2e6,26
  d8:	65740063          	beq	s0,s7,718 <_start-0x7ffff8e8>
  dc:	2f007473          	csrrci	s0,0x2f0,0
  e0:	6f68                	ld	a0,216(a4)
  e2:	656d                	lui	a0,0x1b
  e4:	2d34302f          	.insn	4, 0x2d34302f
  e8:	706d6f63          	bltu	s10,t1,806 <_start-0x7ffff7fa>
  ec:	612d                	addi	sp,sp,224
  ee:	6372                	ld	t1,280(sp)
  f0:	2d68                	fld	fa0,216(a0)
  f2:	2f6d                	addiw	t5,t5,27 # 1b01b <_start-0x7ffe4fe5>
  f4:	6f44                	ld	s1,152(a4)
  f6:	6f6c6e77          	.insn	4, 0x6f6c6e77
  fa:	6461                	lui	s0,0x18
  fc:	76632f73          	csrrs	t5,0x766,t1
 100:	78652f77          	.insn	4, 0x78652f77
 104:	6d61                	lui	s10,0x18
 106:	6c70                	ld	a2,216(s0)
 108:	7365                	lui	t1,0xffff9
 10a:	732f432f          	.insn	4, 0x732f432f
 10e:	6d75                	lui	s10,0x1d
 110:	6c00                	ld	s0,24(s0)
 112:	20676e6f          	jal	t3,76318 <_start-0x7ff89ce8>
 116:	6f6c                	ld	a1,216(a4)
 118:	676e                	ld	a4,216(sp)
 11a:	7520                	ld	s0,104(a0)
 11c:	736e                	ld	t1,248(sp)
 11e:	6769                	lui	a4,0x1a
 120:	656e                	ld	a0,216(sp)
 122:	2064                	fld	fs1,192(s0)
 124:	6e69                	lui	t3,0x1a
 126:	0074                	addi	a3,sp,12
 128:	6572                	ld	a0,280(sp)
 12a:	746c7573          	csrrci	a0,0x746,24
 12e:	6c00                	ld	s0,24(s0)
 130:	20676e6f          	jal	t3,76336 <_start-0x7ff89cca>
 134:	6f6c                	ld	a1,216(a4)
 136:	676e                	ld	a4,216(sp)
 138:	6920                	ld	s0,80(a0)
 13a:	746e                	ld	s0,248(sp)
 13c:	7300                	ld	s0,32(a4)
 13e:	6f68                	ld	a0,216(a4)
 140:	7472                	ld	s0,312(sp)
 142:	6920                	ld	s0,80(a0)
 144:	746e                	ld	s0,248(sp)
 146:	6c00                	ld	s0,24(s0)
 148:	20676e6f          	jal	t3,7634e <_start-0x7ff89cb2>
 14c:	6f64                	ld	s1,216(a4)
 14e:	6275                	lui	tp,0x1d
 150:	656c                	ld	a1,200(a0)
 152:	7300                	ld	s0,32(a4)
 154:	7465                	lui	s0,0xffff9
 156:	74617453          	.insn	4, 0x74617453
 15a:	2e2e0073          	.insn	4, 0x2e2e0073
 15e:	6d6f632f          	.insn	4, 0x6d6f632f
 162:	6f6d                	lui	t5,0x1b
 164:	2f6e                	fld	ft10,216(sp)
 166:	2e747263          	bgeu	s0,t2,44a <_start-0x7ffffbb6>
 16a:	4e470053          	.insn	4, 0x4e470053
 16e:	2055                	.insn	2, 0x2055
 170:	5341                	li	t1,-16
 172:	3220                	fld	fs0,96(a2)
 174:	342e                	fld	fs0,232(sp)
 176:	00312e33          	slt	t3,sp,gp
 17a:	7570                	ld	a2,232(a0)
 17c:	6474                	ld	a3,200(s0)
 17e:	7461                	lui	s0,0xffff8
 180:	7300                	ld	s0,32(a4)
 182:	7274                	ld	a3,224(a2)
 184:	00706d63          	bltu	zero,t2,19e <_start-0x7ffffe62>
 188:	6270                	ld	a2,192(a2)
 18a:	6675                	lui	a2,0x1d
 18c:	7300                	ld	s0,32(a4)
 18e:	7a69                	lui	s4,0xffffa
 190:	5f65                	li	t5,-7
 192:	0074                	addi	a3,sp,12
 194:	7076                	.insn	2, 0x7076
 196:	6972                	ld	s2,280(sp)
 198:	746e                	ld	s0,248(sp)
 19a:	6d66                	ld	s10,88(sp)
 19c:	0074                	addi	a3,sp,12
 19e:	5f5f 6975 746e      	.insn	6, 0x746e69755f5f
 1a4:	5f38                	lw	a4,120(a4)
 1a6:	0074                	addi	a3,sp,12
 1a8:	6168                	ld	a0,192(a0)
 1aa:	646e                	ld	s0,216(sp)
 1ac:	656c                	ld	a1,200(a0)
 1ae:	745f 6172 0070      	.insn	6, 0x00706172745f
 1b4:	5f5f 7562 6c69      	.insn	6, 0x6c6975625f5f
 1ba:	6974                	ld	a3,208(a0)
 1bc:	5f6e                	lw	t5,248(sp)
 1be:	656d                	lui	a0,0x1b
 1c0:	736d                	lui	t1,0xffffb
 1c2:	7465                	lui	s0,0xffff9
 1c4:	6100                	ld	s0,0(a0)
 1c6:	746c                	ld	a1,232(s0)
 1c8:	6c66                	ld	s8,88(sp)
 1ca:	6761                	lui	a4,0x18
 1cc:	7400                	ld	s0,40(s0)
 1ce:	7268                	ld	a0,224(a2)
 1d0:	6165                	addi	sp,sp,112
 1d2:	5f64                	lw	s1,124(a4)
 1d4:	6f70                	ld	a2,216(a4)
 1d6:	6e69                	lui	t3,0x1a
 1d8:	6574                	ld	a3,200(a0)
 1da:	0072                	c.slli	zero,0x1c
 1dc:	6175                	addi	sp,sp,368
 1de:	7472                	ld	s0,312(sp)
 1e0:	6e49                	lui	t3,0x12
 1e2:	7469                	lui	s0,0xffffa
 1e4:	7400                	ld	s0,40(s0)
 1e6:	6164                	ld	s1,192(a0)
 1e8:	6174                	ld	a3,192(a0)
 1ea:	735f 7a69 0065      	.insn	6, 0x00657a69735f
 1f0:	4155                	li	sp,21
 1f2:	5452                	lw	s0,52(sp)
 1f4:	4c5f 5243 6300      	.insn	6, 0x630052434c5f
 1fa:	7561                	lui	a0,0xffff8
 1fc:	5f006573          	csrrsi	a0,0x5f0,0
 200:	6474                	ld	a3,200(s0)
 202:	7461                	lui	s0,0xffff8
 204:	5f61                	li	t5,-8
 206:	6562                	ld	a0,24(sp)
 208:	006e6967          	.insn	4, 0x006e6967
 20c:	5f5f 7562 6c69      	.insn	6, 0x6c6975625f5f
 212:	6974                	ld	a3,208(a0)
 214:	5f6e                	lw	t5,248(sp)
 216:	6176                	ld	sp,344(sp)
 218:	6c5f 7369 0074      	.insn	6, 0x007473696c5f
 21e:	7570                	ld	a2,232(a0)
 220:	6374                	ld	a3,192(a4)
 222:	6168                	ld	a0,192(a0)
 224:	0072                	c.slli	zero,0x1c
 226:	6e65                	lui	t3,0x19
 228:	6261                	lui	tp,0x18
 22a:	656c                	ld	a1,200(a0)
 22c:	7300                	ld	s0,32(a4)
 22e:	7270                	ld	a2,224(a2)
 230:	6e69                	lui	t3,0x1a
 232:	6674                	ld	a3,200(a2)
 234:	7300                	ld	s0,32(a4)
 236:	7274                	ld	a3,224(a2)
 238:	0030                	addi	a2,sp,8
 23a:	6175                	addi	sp,sp,368
 23c:	7472                	ld	s0,312(sp)
 23e:	6552                	ld	a0,272(sp)
 240:	76696563          	bltu	s2,t1,9aa <_start-0x7ffff656>
 244:	0065                	c.nop	25
 246:	6964                	ld	s1,208(a0)
 248:	55007367          	.insn	4, 0x55007367
 24c:	5241                	li	tp,-16
 24e:	5f54                	lw	a3,60(a4)
 250:	534c                	lw	a1,36(a4)
 252:	0052                	c.slli	zero,0x14
 254:	7962                	ld	s2,56(sp)
 256:	6574                	ld	a3,200(a0)
 258:	5f00                	lw	s0,56(a4)
 25a:	745f 706d 7500      	.insn	6, 0x7500706d745f
 260:	7261                	lui	tp,0xffff8
 262:	5374                	lw	a3,100(a4)
 264:	6e65                	lui	t3,0x19
 266:	0064                	addi	s1,sp,12
 268:	7270                	ld	a2,224(a2)
 26a:	7365636f          	jal	t1,569a0 <_start-0x7ffa9660>
 26e:	72705f73          	csrrwi	t5,mhpmevent7h,0
 272:	6365                	lui	t1,0x19
 274:	7369                	lui	t1,0xffffa
 276:	6f69                	lui	t5,0x1a
 278:	006e                	c.slli	zero,0x1b
 27a:	6c727473          	csrrci	s0,0x6c7,4
 27e:	6e65                	lui	t3,0x19
 280:	7300                	ld	s0,32(a4)
 282:	7270                	ld	a2,224(a2)
 284:	6e69                	lui	t3,0x1a
 286:	6674                	ld	a3,200(a2)
 288:	705f 7475 6863      	.insn	6, 0x68637475705f
 28e:	6900                	ld	s0,16(a0)
 290:	696e                	ld	s2,216(sp)
 292:	5f74                	lw	a3,124(a4)
 294:	6c74                	ld	a3,216(s0)
 296:	41550073          	.insn	4, 0x41550073
 29a:	5452                	lw	s0,52(sp)
 29c:	545f 5248 7700      	.insn	6, 0x77005248545f
 2a2:	6469                	lui	s0,0x1a
 2a4:	6874                	ld	a3,208(s0)
 2a6:	6700                	ld	s0,8(a4)
 2a8:	7465                	lui	s0,0xffff9
 2aa:	6975                	lui	s2,0x1d
 2ac:	746e                	ld	s0,248(sp)
 2ae:	6400                	ld	s0,8(s0)
 2b0:	7461                	lui	s0,0xffff8
 2b2:	0061                	c.nop	24
 2b4:	63727473          	csrrci	s0,0x637,4
 2b8:	7970                	ld	a2,240(a0)
 2ba:	5f00                	lw	s0,56(a4)
 2bc:	625f 6975 746c      	.insn	6, 0x746c6975625f
 2c2:	6e69                	lui	t3,0x1a
 2c4:	6d5f 6d65 7063      	.insn	6, 0x70636d656d5f
 2ca:	0079                	c.nop	30
 2cc:	6e756f63          	bltu	a0,t2,9ca <_start-0x7ffff636>
 2d0:	6574                	ld	a3,200(a0)
 2d2:	7372                	ld	t1,312(sp)
 2d4:	6200                	ld	s0,0(a2)
 2d6:	7361                	lui	t1,0xffff8
 2d8:	0065                	c.nop	25
 2da:	7570                	ld	a2,232(a0)
 2dc:	7374                	ld	a3,224(a4)
 2de:	7500                	ld	s0,40(a0)
 2e0:	736e                	ld	t1,248(sp)
 2e2:	6769                	lui	a4,0x1a
 2e4:	656e                	ld	a0,216(sp)
 2e6:	5f64                	lw	s1,124(a4)
 2e8:	756e                	ld	a0,248(sp)
 2ea:	626d                	lui	tp,0x1b
 2ec:	7265                	lui	tp,0xffff9
 2ee:	7500                	ld	s0,40(a0)
 2f0:	7261                	lui	tp,0xffff8
 2f2:	5074                	lw	a3,100(s0)
 2f4:	7475                	lui	s0,0xffffd
 2f6:	00727453          	fadd.s	fs0,ft4,ft7
 2fa:	5f5f 6e67 6375      	.insn	6, 0x63756e675f5f
 300:	765f 5f61 696c      	.insn	6, 0x696c5f61765f
 306:	77007473          	csrrci	s0,0x770,0
 30a:	0064726f          	jal	tp,47310 <_start-0x7ffb8cf0>
 30e:	666c                	ld	a1,200(a2)
 310:	616c                	ld	a1,192(a0)
 312:	616c0067          	jr	1558(s8) # b616 <_start-0x7fff49ea>
 316:	665f7473          	csrrci	s0,0x665,30
 31a:	746d                	lui	s0,0xffffb
 31c:	6400                	ld	s0,8(s0)
 31e:	7365                	lui	t1,0xffff9
 320:	0074                	addi	a3,sp,12
 322:	745f 7362 5f73      	.insn	6, 0x5f737362745f
 328:	6e65                	lui	t3,0x19
 32a:	0064                	addi	s1,sp,12
 32c:	5f5f 6975 746e      	.insn	6, 0x746e69755f5f
 332:	3436                	fld	fs0,360(sp)
 334:	745f 6700 7465      	.insn	6, 0x74656700745f
 33a:	6e69                	lui	t3,0x1a
 33c:	0074                	addi	a3,sp,12
 33e:	7461                	lui	s0,0xffff8
 340:	74006c6f          	jal	s8,6a80 <_start-0x7fff9580>
 344:	736f686f          	jal	a6,f6a7a <_start-0x7ff09586>
 348:	0074                	addi	a3,sp,12
 34a:	6e756f63          	bltu	a0,t2,a48 <_start-0x7ffff5b8>
 34e:	6574                	ld	a3,200(a0)
 350:	5f72                	lw	t5,60(sp)
 352:	616e                	ld	sp,216(sp)
 354:	656d                	lui	a0,0x1b
 356:	5f5f0073          	.insn	4, 0x5f5f0073
 35a:	6975                	lui	s2,0x1d
 35c:	746e                	ld	s0,248(sp)
 35e:	7470                	ld	a2,232(s0)
 360:	5f72                	lw	t5,60(sp)
 362:	0074                	addi	a3,sp,12
 364:	6274                	ld	a3,192(a2)
 366:	735f7373          	csrrci	t1,mhpmevent21h,30
 36a:	7a69                	lui	s4,0xffffa
 36c:	0065                	c.nop	25
 36e:	6572                	ld	a0,280(sp)
 370:	70007367          	.insn	4, 0x70007367
 374:	6972                	ld	s2,280(sp)
 376:	746e                	ld	s0,248(sp)
 378:	6568                	ld	a0,200(a0)
 37a:	0078                	addi	a4,sp,12
 37c:	7270                	ld	a2,224(a2)
 37e:	6e69                	lui	t3,0x1a
 380:	7374                	ld	a3,224(a4)
 382:	7274                	ld	a3,224(a2)
 384:	5f00                	lw	s0,56(a4)
 386:	6e69                	lui	t3,0x1a
 388:	7469                	lui	s0,0xffffa
 38a:	2e00                	fld	fs0,24(a2)
 38c:	2f2e                	fld	ft10,200(sp)
 38e:	6d6d6f63          	bltu	s10,s6,a6c <_start-0x7ffff594>
 392:	732f6e6f          	jal	t3,f6ac4 <_start-0x7ff0953c>
 396:	7379                	lui	t1,0xffffe
 398:	6c6c6163          	bltu	s8,t1,a5a <_start-0x7ffff5a6>
 39c:	00632e73          	csrrs	t3,0x6,t1
 3a0:	7270                	ld	a2,224(a2)
 3a2:	6e69                	lui	t3,0x1a
 3a4:	6e74                	ld	a3,216(a2)
 3a6:	6d75                	lui	s10,0x1d
 3a8:	6100                	ld	s0,0(a0)
 3aa:	6f62                	ld	t5,24(sp)
 3ac:	7472                	ld	s0,312(sp)
 3ae:	5f00                	lw	s0,56(a4)
 3b0:	6474                	ld	a3,200(s0)
 3b2:	7461                	lui	s0,0xffff8
 3b4:	5f61                	li	t5,-8
 3b6:	6e65                	lui	t3,0x19
 3b8:	0064                	addi	s1,sp,12
 3ba:	7370                	ld	a2,224(a4)
 3bc:	7274                	ld	a3,224(a2)
 3be:	7200                	ld	s0,32(a2)
 3c0:	7365                	lui	t1,0xffff9
 3c2:	63746977          	.insn	4, 0x63746977
 3c6:	0068                	addi	a0,sp,12
 3c8:	65646f63          	bltu	s0,s6,a26 <_start-0x7ffff5da>
 3cc:	7300                	ld	s0,32(a4)
 3ce:	6769                	lui	a4,0x1a
 3d0:	006e                	c.slli	zero,0x1b
 3d2:	7261                	lui	tp,0xffff8
 3d4:	55006367          	.insn	4, 0x55006367
 3d8:	5241                	li	tp,-16
 3da:	5f54                	lw	a3,60(a4)
 3dc:	4252                	lw	tp,20(sp)
 3de:	0052                	c.slli	zero,0x14
 3e0:	6170                	ld	a2,192(a0)
 3e2:	6364                	ld	s1,192(a4)
 3e4:	6100                	ld	s0,0(a0)
 3e6:	6772                	ld	a4,280(sp)
 3e8:	0076                	c.slli	zero,0x1d
 3ea:	6e727473          	csrrci	s0,0x6e7,4
 3ee:	656c                	ld	a1,200(a0)
 3f0:	006e                	c.slli	zero,0x1b
 3f2:	6f74                	ld	a3,216(a4)
 3f4:	6f68                	ld	a0,216(a4)
 3f6:	655f7473          	csrrci	s0,hviph,30
 3fa:	6978                	ld	a4,208(a0)
 3fc:	0074                	addi	a3,sp,12
 3fe:	6874                	ld	a3,208(s0)
 400:	6572                	ld	a0,280(sp)
 402:	6461                	lui	s0,0x18
 404:	655f 746e 7972      	.insn	6, 0x7972746e655f
	...

Disassembly of section .comment:

0000000000000000 <.comment>:
   0:	3a434347          	fmsub.d	ft6,ft6,ft4,ft7,rmm
   4:	2820                	fld	fs0,80(s0)
   6:	2029                	.insn	2, 0x2029
   8:	3431                	addiw	s0,s0,-20 # 17fec <_start-0x7ffe8014>
   a:	322e                	fld	ft4,232(sp)
   c:	302e                	fld	ft0,232(sp)
	...

Disassembly of section .riscv.attributes:

0000000000000000 <.riscv.attributes>:
   0:	6941                	lui	s2,0x10
   2:	0000                	unimp
   4:	7200                	ld	s0,32(a2)
   6:	7369                	lui	t1,0xffffa
   8:	01007663          	bgeu	zero,a6,14 <_start-0x7fffffec>
   c:	005f 0000 1004      	.insn	6, 0x10040000005f
  12:	7205                	lui	tp,0xfffe1
  14:	3676                	fld	fa2,376(sp)
  16:	6934                	ld	a3,80(a0)
  18:	7032                	.insn	2, 0x7032
  1a:	5f31                	li	t5,-20
  1c:	326d                	addiw	tp,tp,-5 # fffffffffffe0ffb <__global_pointer$+0xffffffff7ffdf7b3>
  1e:	3070                	fld	fa2,224(s0)
  20:	615f 7032 5f31      	.insn	6, 0x5f317032615f
  26:	3266                	fld	ft4,120(sp)
  28:	3270                	fld	fa2,224(a2)
  2a:	645f 7032 5f32      	.insn	6, 0x5f327032645f
  30:	30703263          	.insn	4, 0x30703263
  34:	7a5f 6369 7273      	.insn	6, 0x727363697a5f
  3a:	7032                	.insn	2, 0x7032
  3c:	5f30                	lw	a2,120(a4)
  3e:	697a                	ld	s2,408(sp)
  40:	6566                	ld	a0,88(sp)
  42:	636e                	ld	t1,216(sp)
  44:	6965                	lui	s2,0x19
  46:	7032                	.insn	2, 0x7032
  48:	5f30                	lw	a2,120(a4)
  4a:	6d7a                	ld	s10,408(sp)
  4c:	756d                	lui	a0,0xffffb
  4e:	316c                	fld	fa1,224(a0)
  50:	3070                	fld	fa2,224(s0)
  52:	7a5f 6161 6f6d      	.insn	6, 0x6f6d61617a5f
  58:	7031                	c.lui	zero,0xfffec
  5a:	5f30                	lw	a2,120(a4)
  5c:	617a                	ld	sp,408(sp)
  5e:	726c                	ld	a1,224(a2)
  60:	70316373          	csrrsi	t1,0x703,2
  64:	0030                	addi	a2,sp,8
  66:	0108                	addi	a0,sp,128
  68:	0b0a                	slli	s6,s6,0x2

Disassembly of section .debug_frame:

0000000000000000 <.debug_frame>:
   0:	000c                	.insn	2, 0x000c
   2:	0000                	unimp
   4:	ffff                	.insn	2, 0xffff
   6:	ffff                	.insn	2, 0xffff
   8:	7c010003          	lb	zero,1984(sp)
   c:	0c01                	addi	s8,s8,0
   e:	0002                	c.slli64	zero
  10:	0014                	.insn	2, 0x0014
  12:	0000                	unimp
  14:	0000                	unimp
  16:	0000                	unimp
  18:	01c2                	slli	gp,gp,0x10
  1a:	8000                	.insn	2, 0x8000
  1c:	0000                	unimp
  1e:	0000                	unimp
  20:	001a                	c.slli	zero,0x6
  22:	0000                	unimp
  24:	0000                	unimp
  26:	0000                	unimp
  28:	0024                	addi	s1,sp,8
  2a:	0000                	unimp
  2c:	0000                	unimp
  2e:	0000                	unimp
  30:	01dc                	addi	a5,sp,196
  32:	8000                	.insn	2, 0x8000
  34:	0000                	unimp
  36:	0000                	unimp
  38:	003c                	addi	a5,sp,8
  3a:	0000                	unimp
  3c:	0000                	unimp
  3e:	0000                	unimp
  40:	0e42                	slli	t3,t3,0x10
  42:	4420                	lw	s0,72(s0)
  44:	0281                	addi	t0,t0,0
  46:	0488                	addi	a0,sp,576
  48:	3002                	fld	ft0,32(sp)
  4a:	42c1                	li	t0,16
  4c:	42c8                	lw	a0,4(a3)
  4e:	000e                	c.slli	zero,0x3
  50:	000c                	.insn	2, 0x000c
  52:	0000                	unimp
  54:	ffff                	.insn	2, 0xffff
  56:	ffff                	.insn	2, 0xffff
  58:	7c010003          	lb	zero,1984(sp)
  5c:	0c01                	addi	s8,s8,0
  5e:	0002                	c.slli64	zero
  60:	0014                	.insn	2, 0x0014
  62:	0000                	unimp
  64:	0050                	addi	a2,sp,4
  66:	0000                	unimp
  68:	0218                	addi	a4,sp,256
  6a:	8000                	.insn	2, 0x8000
  6c:	0000                	unimp
  6e:	0000                	unimp
  70:	000e                	c.slli	zero,0x3
  72:	0000                	unimp
  74:	0000                	unimp
  76:	0000                	unimp
  78:	0014                	.insn	2, 0x0014
  7a:	0000                	unimp
  7c:	0050                	addi	a2,sp,4
  7e:	0000                	unimp
  80:	0226                	slli	tp,tp,0x9
  82:	8000                	.insn	2, 0x8000
  84:	0000                	unimp
  86:	0000                	unimp
  88:	000c                	.insn	2, 0x000c
  8a:	0000                	unimp
  8c:	0000                	unimp
  8e:	0000                	unimp
  90:	0014                	.insn	2, 0x0014
  92:	0000                	unimp
  94:	0050                	addi	a2,sp,4
  96:	0000                	unimp
  98:	0232                	slli	tp,tp,0xc
  9a:	8000                	.insn	2, 0x8000
  9c:	0000                	unimp
  9e:	0000                	unimp
  a0:	001a                	c.slli	zero,0x6
  a2:	0000                	unimp
  a4:	0000                	unimp
  a6:	0000                	unimp
  a8:	0024                	addi	s1,sp,8
  aa:	0000                	unimp
  ac:	0050                	addi	a2,sp,4
  ae:	0000                	unimp
  b0:	024c                	addi	a1,sp,260
  b2:	8000                	.insn	2, 0x8000
  b4:	0000                	unimp
  b6:	0000                	unimp
  b8:	0014                	.insn	2, 0x0014
  ba:	0000                	unimp
  bc:	0000                	unimp
  be:	0000                	unimp
  c0:	0e42                	slli	t3,t3,0x10
  c2:	4210                	lw	a2,0(a2)
  c4:	0281                	addi	t0,t0,0
  c6:	c14c                	sw	a1,4(a0)
  c8:	0e42                	slli	t3,t3,0x10
  ca:	0000                	unimp
  cc:	0000                	unimp
  ce:	0000                	unimp
  d0:	0014                	.insn	2, 0x0014
  d2:	0000                	unimp
  d4:	0050                	addi	a2,sp,4
  d6:	0000                	unimp
  d8:	0260                	addi	s0,sp,268
  da:	8000                	.insn	2, 0x8000
  dc:	0000                	unimp
  de:	0000                	unimp
  e0:	0018                	.insn	2, 0x0018
  e2:	0000                	unimp
  e4:	0000                	unimp
  e6:	0000                	unimp
  e8:	0024                	addi	s1,sp,8
  ea:	0000                	unimp
  ec:	0050                	addi	a2,sp,4
  ee:	0000                	unimp
  f0:	0278                	addi	a4,sp,268
  f2:	8000                	.insn	2, 0x8000
  f4:	0000                	unimp
  f6:	0000                	unimp
  f8:	0022                	c.slli	zero,0x8
  fa:	0000                	unimp
  fc:	0000                	unimp
  fe:	0000                	unimp
 100:	0e42                	slli	t3,t3,0x10
 102:	4410                	lw	a2,8(s0)
 104:	0281                	addi	t0,t0,0
 106:	0488                	addi	a0,sp,576
 108:	c156                	sw	s5,128(sp)
 10a:	c842                	sw	a6,16(sp)
 10c:	0e42                	slli	t3,t3,0x10
 10e:	0000                	unimp
 110:	0014                	.insn	2, 0x0014
 112:	0000                	unimp
 114:	0050                	addi	a2,sp,4
 116:	0000                	unimp
 118:	029a                	slli	t0,t0,0x6
 11a:	8000                	.insn	2, 0x8000
 11c:	0000                	unimp
 11e:	0000                	unimp
 120:	0046                	c.slli	zero,0x11
 122:	0000                	unimp
 124:	0000                	unimp
 126:	0000                	unimp
 128:	0014                	.insn	2, 0x0014
 12a:	0000                	unimp
 12c:	0050                	addi	a2,sp,4
 12e:	0000                	unimp
 130:	02e0                	addi	s0,sp,332
 132:	8000                	.insn	2, 0x8000
 134:	0000                	unimp
 136:	0000                	unimp
 138:	0012                	c.slli	zero,0x4
 13a:	0000                	unimp
 13c:	0000                	unimp
 13e:	0000                	unimp
 140:	001c                	.insn	2, 0x001c
 142:	0000                	unimp
 144:	0050                	addi	a2,sp,4
 146:	0000                	unimp
 148:	02f2                	slli	t0,t0,0x1c
 14a:	8000                	.insn	2, 0x8000
 14c:	0000                	unimp
 14e:	0000                	unimp
 150:	000c                	.insn	2, 0x000c
 152:	0000                	unimp
 154:	0000                	unimp
 156:	0000                	unimp
 158:	0e42                	slli	t3,t3,0x10
 15a:	4210                	lw	a2,0(a2)
 15c:	0281                	addi	t0,t0,0
 15e:	0000                	unimp
 160:	001c                	.insn	2, 0x001c
 162:	0000                	unimp
 164:	0050                	addi	a2,sp,4
 166:	0000                	unimp
 168:	02fe                	slli	t0,t0,0x1f
 16a:	8000                	.insn	2, 0x8000
 16c:	0000                	unimp
 16e:	0000                	unimp
 170:	0008                	.insn	2, 0x0008
 172:	0000                	unimp
 174:	0000                	unimp
 176:	0000                	unimp
 178:	0e42                	slli	t3,t3,0x10
 17a:	4210                	lw	a2,0(a2)
 17c:	0281                	addi	t0,t0,0
 17e:	0000                	unimp
 180:	001c                	.insn	2, 0x001c
 182:	0000                	unimp
 184:	0050                	addi	a2,sp,4
 186:	0000                	unimp
 188:	0306                	slli	t1,t1,0x1
 18a:	8000                	.insn	2, 0x8000
 18c:	0000                	unimp
 18e:	0000                	unimp
 190:	000c                	.insn	2, 0x000c
 192:	0000                	unimp
 194:	0000                	unimp
 196:	0000                	unimp
 198:	0e42                	slli	t3,t3,0x10
 19a:	4210                	lw	a2,0(a2)
 19c:	0281                	addi	t0,t0,0
 19e:	0000                	unimp
 1a0:	0024                	addi	s1,sp,8
 1a2:	0000                	unimp
 1a4:	0050                	addi	a2,sp,4
 1a6:	0000                	unimp
 1a8:	0312                	slli	t1,t1,0x4
 1aa:	8000                	.insn	2, 0x8000
 1ac:	0000                	unimp
 1ae:	0000                	unimp
 1b0:	000e                	c.slli	zero,0x3
 1b2:	0000                	unimp
 1b4:	0000                	unimp
 1b6:	0000                	unimp
 1b8:	0e42                	slli	t3,t3,0x10
 1ba:	4210                	lw	a2,0(a2)
 1bc:	0281                	addi	t0,t0,0
 1be:	c146                	sw	a7,128(sp)
 1c0:	0e42                	slli	t3,t3,0x10
 1c2:	0000                	unimp
 1c4:	0000                	unimp
 1c6:	0000                	unimp
 1c8:	0024                	addi	s1,sp,8
 1ca:	0000                	unimp
 1cc:	0050                	addi	a2,sp,4
 1ce:	0000                	unimp
 1d0:	0320                	addi	s0,sp,392
 1d2:	8000                	.insn	2, 0x8000
 1d4:	0000                	unimp
 1d6:	0000                	unimp
 1d8:	0010                	.insn	2, 0x0010
 1da:	0000                	unimp
 1dc:	0000                	unimp
 1de:	0000                	unimp
 1e0:	0e42                	slli	t3,t3,0x10
 1e2:	4210                	lw	a2,0(a2)
 1e4:	0281                	addi	t0,t0,0
 1e6:	c148                	sw	a0,4(a0)
 1e8:	0e42                	slli	t3,t3,0x10
 1ea:	0000                	unimp
 1ec:	0000                	unimp
 1ee:	0000                	unimp
 1f0:	0014                	.insn	2, 0x0014
 1f2:	0000                	unimp
 1f4:	0050                	addi	a2,sp,4
 1f6:	0000                	unimp
 1f8:	0330                	addi	a2,sp,392
 1fa:	8000                	.insn	2, 0x8000
 1fc:	0000                	unimp
 1fe:	0000                	unimp
 200:	0006                	c.slli	zero,0x1
 202:	0000                	unimp
 204:	0000                	unimp
 206:	0000                	unimp
 208:	0024                	addi	s1,sp,8
 20a:	0000                	unimp
 20c:	0050                	addi	a2,sp,4
 20e:	0000                	unimp
 210:	0336                	slli	t1,t1,0xd
 212:	8000                	.insn	2, 0x8000
 214:	0000                	unimp
 216:	0000                	unimp
 218:	0018                	.insn	2, 0x0018
 21a:	0000                	unimp
 21c:	0000                	unimp
 21e:	0000                	unimp
 220:	0e42                	slli	t3,t3,0x10
 222:	4210                	lw	a2,0(a2)
 224:	0281                	addi	t0,t0,0
 226:	c150                	sw	a2,4(a0)
 228:	0e42                	slli	t3,t3,0x10
 22a:	0000                	unimp
 22c:	0000                	unimp
 22e:	0000                	unimp
 230:	0024                	addi	s1,sp,8
 232:	0000                	unimp
 234:	0050                	addi	a2,sp,4
 236:	0000                	unimp
 238:	034e                	slli	t1,t1,0x13
 23a:	8000                	.insn	2, 0x8000
 23c:	0000                	unimp
 23e:	0000                	unimp
 240:	0048                	addi	a0,sp,4
 242:	0000                	unimp
 244:	0000                	unimp
 246:	0000                	unimp
 248:	0e42                	slli	t3,t3,0x10
 24a:	4230                	lw	a2,64(a2)
 24c:	0281                	addi	t0,t0,0
 24e:	4002                	.insn	2, 0x4002
 250:	42c1                	li	t0,16
 252:	000e                	c.slli	zero,0x3
 254:	0000                	unimp
 256:	0000                	unimp
 258:	0014                	.insn	2, 0x0014
 25a:	0000                	unimp
 25c:	0050                	addi	a2,sp,4
 25e:	0000                	unimp
 260:	0396                	slli	t2,t2,0x5
 262:	8000                	.insn	2, 0x8000
 264:	0000                	unimp
 266:	0000                	unimp
 268:	0044                	addi	s1,sp,4
 26a:	0000                	unimp
 26c:	0000                	unimp
 26e:	0000                	unimp
 270:	0014                	.insn	2, 0x0014
 272:	0000                	unimp
 274:	0050                	addi	a2,sp,4
 276:	0000                	unimp
 278:	03da                	slli	t2,t2,0x16
 27a:	8000                	.insn	2, 0x8000
 27c:	0000                	unimp
 27e:	0000                	unimp
 280:	0048                	addi	a0,sp,4
 282:	0000                	unimp
 284:	0000                	unimp
 286:	0000                	unimp
 288:	0014                	.insn	2, 0x0014
 28a:	0000                	unimp
 28c:	0050                	addi	a2,sp,4
 28e:	0000                	unimp
 290:	0422                	slli	s0,s0,0x8
 292:	8000                	.insn	2, 0x8000
 294:	0000                	unimp
 296:	0000                	unimp
 298:	001a                	c.slli	zero,0x6
 29a:	0000                	unimp
 29c:	0000                	unimp
 29e:	0000                	unimp
 2a0:	0014                	.insn	2, 0x0014
 2a2:	0000                	unimp
 2a4:	0050                	addi	a2,sp,4
 2a6:	0000                	unimp
 2a8:	043c                	addi	a5,sp,520
 2aa:	8000                	.insn	2, 0x8000
 2ac:	0000                	unimp
 2ae:	0000                	unimp
 2b0:	001e                	c.slli	zero,0x7
 2b2:	0000                	unimp
 2b4:	0000                	unimp
 2b6:	0000                	unimp
 2b8:	006c                	addi	a1,sp,12
 2ba:	0000                	unimp
 2bc:	0050                	addi	a2,sp,4
 2be:	0000                	unimp
 2c0:	045a                	slli	s0,s0,0x16
 2c2:	8000                	.insn	2, 0x8000
 2c4:	0000                	unimp
 2c6:	0000                	unimp
 2c8:	02c8                	addi	a0,sp,324
 2ca:	0000                	unimp
 2cc:	0000                	unimp
 2ce:	0000                	unimp
 2d0:	0e42                	slli	t3,t3,0x10
 2d2:	02f0                	addi	a2,sp,332
 2d4:	8158                	.insn	2, 0x8158
 2d6:	8802                	jr	a6
 2d8:	8904                	.insn	2, 0x8904
 2da:	9206                	add	tp,tp,ra
 2dc:	9308                	.insn	2, 0x9308
 2de:	940a                	add	s0,s0,sp
 2e0:	950c                	.insn	2, 0x950c
 2e2:	960e                	add	a2,a2,gp
 2e4:	9710                	.insn	2, 0x9710
 2e6:	9812                	add	a6,a6,tp
 2e8:	9a14                	.insn	2, 0x9a14
 2ea:	9b18                	.insn	2, 0x9b18
 2ec:	021a                	slli	tp,tp,0x6
 2ee:	0a72                	slli	s4,s4,0x1c
 2f0:	1699                	addi	a3,a3,-26
 2f2:	0b42                	slli	s6,s6,0x10
 2f4:	9900fc03          	.insn	4, 0x9900fc03
 2f8:	7616                	ld	a2,352(sp)
 2fa:	48d9                	li	a7,22
 2fc:	1699                	addi	a3,a3,-26
 2fe:	d954                	sw	a3,52(a0)
 300:	9944                	.insn	2, 0x9944
 302:	0216                	slli	tp,tp,0x5
 304:	d968                	sw	a0,116(a0)
 306:	9944                	.insn	2, 0x9944
 308:	6a16                	ld	s4,320(sp)
 30a:	78d9                	lui	a7,0xffff6
 30c:	42c1                	li	t0,16
 30e:	42c8                	lw	a0,4(a3)
 310:	42c9                	li	t0,18
 312:	42d2                	lw	t0,20(sp)
 314:	42d442d3          	.insn	4, 0x42d442d3
 318:	42d5                	li	t0,21
 31a:	42d6                	lw	t0,84(sp)
 31c:	42d842d7          	.insn	4, 0x42d842d7
 320:	42da                	lw	t0,148(sp)
 322:	000e42db          	.insn	4, 0x000e42db
 326:	0000                	unimp
 328:	0024                	addi	s1,sp,8
 32a:	0000                	unimp
 32c:	0050                	addi	a2,sp,4
 32e:	0000                	unimp
 330:	0722                	slli	a4,a4,0x8
 332:	8000                	.insn	2, 0x8000
 334:	0000                	unimp
 336:	0000                	unimp
 338:	002e                	c.slli	zero,0xb
 33a:	0000                	unimp
 33c:	0000                	unimp
 33e:	0000                	unimp
 340:	0e42                	slli	t3,t3,0x10
 342:	4260                	lw	s0,68(a2)
 344:	1281                	addi	t0,t0,-32
 346:	c166                	sw	s9,128(sp)
 348:	0e42                	slli	t3,t3,0x10
 34a:	0000                	unimp
 34c:	0000                	unimp
 34e:	0000                	unimp
 350:	0024                	addi	s1,sp,8
 352:	0000                	unimp
 354:	0050                	addi	a2,sp,4
 356:	0000                	unimp
 358:	0750                	addi	a2,sp,900
 35a:	8000                	.insn	2, 0x8000
 35c:	0000                	unimp
 35e:	0000                	unimp
 360:	003c                	addi	a5,sp,8
 362:	0000                	unimp
 364:	0000                	unimp
 366:	0000                	unimp
 368:	0e42                	slli	t3,t3,0x10
 36a:	4460                	lw	s0,76(s0)
 36c:	0e81                	addi	t4,t4,0
 36e:	1088                	addi	a0,sp,96
 370:	c170                	sw	a2,68(a0)
 372:	c842                	sw	a6,16(sp)
 374:	0e42                	slli	t3,t3,0x10
 376:	0000                	unimp
 378:	002c                	addi	a1,sp,8
 37a:	0000                	unimp
 37c:	0050                	addi	a2,sp,4
 37e:	0000                	unimp
 380:	078c                	addi	a1,sp,960
 382:	8000                	.insn	2, 0x8000
 384:	0000                	unimp
 386:	0000                	unimp
 388:	00bc                	addi	a5,sp,72
 38a:	0000                	unimp
 38c:	0000                	unimp
 38e:	0000                	unimp
 390:	0e42                	slli	t3,t3,0x10
 392:	01b0                	addi	a2,sp,200
 394:	814e                	mv	sp,s3
 396:	8802                	jr	a6
 398:	8904                	.insn	2, 0x8904
 39a:	9206                	add	tp,tp,ra
 39c:	9308                	.insn	2, 0x9308
 39e:	940a                	add	s0,s0,sp
 3a0:	950c                	.insn	2, 0x950c
 3a2:	000e                	c.slli	zero,0x3
 3a4:	0000                	unimp
 3a6:	0000                	unimp
 3a8:	0014                	.insn	2, 0x0014
 3aa:	0000                	unimp
 3ac:	0050                	addi	a2,sp,4
 3ae:	0000                	unimp
 3b0:	0848                	addi	a0,sp,20
 3b2:	8000                	.insn	2, 0x8000
 3b4:	0000                	unimp
 3b6:	0000                	unimp
 3b8:	0018                	.insn	2, 0x0018
 3ba:	0000                	unimp
 3bc:	0000                	unimp
 3be:	0000                	unimp
 3c0:	0014                	.insn	2, 0x0014
 3c2:	0000                	unimp
 3c4:	0050                	addi	a2,sp,4
 3c6:	0000                	unimp
 3c8:	0860                	addi	s0,sp,28
 3ca:	8000                	.insn	2, 0x8000
 3cc:	0000                	unimp
 3ce:	0000                	unimp
 3d0:	0012                	c.slli	zero,0x4
 3d2:	0000                	unimp
 3d4:	0000                	unimp
 3d6:	0000                	unimp
 3d8:	0014                	.insn	2, 0x0014
 3da:	0000                	unimp
 3dc:	0050                	addi	a2,sp,4
 3de:	0000                	unimp
 3e0:	0872                	slli	a6,a6,0x1c
 3e2:	8000                	.insn	2, 0x8000
 3e4:	0000                	unimp
 3e6:	0000                	unimp
 3e8:	0066                	c.slli	zero,0x19
 3ea:	0000                	unimp
 3ec:	0000                	unimp
	...

Disassembly of section .debug_ranges:

0000000000000000 <.debug_ranges>:
   0:	03ca                	slli	t2,t2,0x12
   2:	0000                	unimp
   4:	0000                	unimp
   6:	0000                	unimp
   8:	03e0                	addi	s0,sp,460
   a:	0000                	unimp
   c:	0000                	unimp
   e:	0000                	unimp
  10:	03ea                	slli	t2,t2,0x1a
  12:	0000                	unimp
  14:	0000                	unimp
  16:	0000                	unimp
  18:	03f2                	slli	t2,t2,0x1c
	...
  2e:	0000                	unimp
  30:	0414                	addi	a3,sp,512
  32:	0000                	unimp
  34:	0000                	unimp
  36:	0000                	unimp
  38:	0414                	addi	a3,sp,512
  3a:	0000                	unimp
  3c:	0000                	unimp
  3e:	0000                	unimp
  40:	0416                	slli	s0,s0,0x5
  42:	0000                	unimp
  44:	0000                	unimp
  46:	0000                	unimp
  48:	0420                	addi	s0,sp,520
  4a:	0000                	unimp
  4c:	0000                	unimp
  4e:	0000                	unimp
  50:	0422                	slli	s0,s0,0x8
  52:	0000                	unimp
  54:	0000                	unimp
  56:	0000                	unimp
  58:	042e                	slli	s0,s0,0xb
  5a:	0000                	unimp
  5c:	0000                	unimp
  5e:	0000                	unimp
  60:	0490                	addi	a2,sp,576
  62:	0000                	unimp
  64:	0000                	unimp
  66:	0000                	unimp
  68:	049a                	slli	s1,s1,0x6
	...
  7e:	0000                	unimp
  80:	0430                	addi	a2,sp,520
  82:	0000                	unimp
  84:	0000                	unimp
  86:	0000                	unimp
  88:	048c                	addi	a1,sp,576
  8a:	0000                	unimp
  8c:	0000                	unimp
  8e:	0000                	unimp
  90:	049a                	slli	s1,s1,0x6
  92:	0000                	unimp
  94:	0000                	unimp
  96:	0000                	unimp
  98:	04ba                	slli	s1,s1,0xe
	...
  ae:	0000                	unimp
  b0:	05d4                	addi	a3,sp,708
  b2:	0000                	unimp
  b4:	0000                	unimp
  b6:	0000                	unimp
  b8:	05e4                	addi	s1,sp,716
  ba:	0000                	unimp
  bc:	0000                	unimp
  be:	0000                	unimp
  c0:	05e6                	slli	a1,a1,0x19
  c2:	0000                	unimp
  c4:	0000                	unimp
  c6:	0000                	unimp
  c8:	05fa                	slli	a1,a1,0x1e
  ca:	0000                	unimp
  cc:	0000                	unimp
  ce:	0000                	unimp
  d0:	060a                	slli	a2,a2,0x2
  d2:	0000                	unimp
  d4:	0000                	unimp
  d6:	0000                	unimp
  d8:	0630                	addi	a2,sp,776
	...
